
Core2/bin/Core2.elf:     file format elf64-littleaarch64


Disassembly of section .boot:

0000000000540000 <__boot_start>:
  540000:	20480000 	.word	0x20480000
  540004:	00000000 	.word	0x00000000

0000000000540008 <.text_end>:
  540008:	20481a84 	.word	0x20481a84
  54000c:	00000000 	.word	0x00000000

0000000000540010 <.text_ld>:
  540010:	20000000 	.word	0x20000000
  540014:	00000008 	.word	0x00000008

0000000000540018 <.rodata_start>:
  540018:	20481a88 	.word	0x20481a88
  54001c:	00000000 	.word	0x00000000

0000000000540020 <.rodata_end>:
  540020:	20481d59 	.word	0x20481d59
  540024:	00000000 	.word	0x00000000

0000000000540028 <.rodata_ld>:
  540028:	20001a84 	.word	0x20001a84
  54002c:	00000008 	.word	0x00000008

0000000000540030 <.data_start>:
  540030:	20481d60 	.word	0x20481d60
  540034:	00000000 	.word	0x00000000

0000000000540038 <.data_end>:
  540038:	20481d88 	.word	0x20481d88
  54003c:	00000000 	.word	0x00000000

0000000000540040 <.data_ld>:
  540040:	20001d55 	.word	0x20001d55
  540044:	00000008 	.word	0x00000008

0000000000540048 <.loader>:
	...

0000000000540050 <_boot>:
  540050:	d2800000 	mov	x0, #0x0                   	// #0
  540054:	d2800001 	mov	x1, #0x0                   	// #0
  540058:	d2800002 	mov	x2, #0x0                   	// #0
  54005c:	d2800003 	mov	x3, #0x0                   	// #0
  540060:	d2800004 	mov	x4, #0x0                   	// #0
  540064:	d2800005 	mov	x5, #0x0                   	// #0
  540068:	d2800006 	mov	x6, #0x0                   	// #0
  54006c:	d2800007 	mov	x7, #0x0                   	// #0
  540070:	d2800008 	mov	x8, #0x0                   	// #0
  540074:	d2800009 	mov	x9, #0x0                   	// #0
  540078:	d280000a 	mov	x10, #0x0                   	// #0
  54007c:	d280000b 	mov	x11, #0x0                   	// #0
  540080:	d280000c 	mov	x12, #0x0                   	// #0
  540084:	d280000d 	mov	x13, #0x0                   	// #0
  540088:	d280000e 	mov	x14, #0x0                   	// #0
  54008c:	d280000f 	mov	x15, #0x0                   	// #0
  540090:	d2800010 	mov	x16, #0x0                   	// #0
  540094:	d2800011 	mov	x17, #0x0                   	// #0
  540098:	d2800012 	mov	x18, #0x0                   	// #0
  54009c:	d2800013 	mov	x19, #0x0                   	// #0
  5400a0:	d2800014 	mov	x20, #0x0                   	// #0
  5400a4:	d2800015 	mov	x21, #0x0                   	// #0
  5400a8:	d2800016 	mov	x22, #0x0                   	// #0
  5400ac:	d2800017 	mov	x23, #0x0                   	// #0
  5400b0:	d2800018 	mov	x24, #0x0                   	// #0
  5400b4:	d2800019 	mov	x25, #0x0                   	// #0
  5400b8:	d280001a 	mov	x26, #0x0                   	// #0
  5400bc:	d280001b 	mov	x27, #0x0                   	// #0
  5400c0:	d280001c 	mov	x28, #0x0                   	// #0
  5400c4:	d280001d 	mov	x29, #0x0                   	// #0
  5400c8:	d280001e 	mov	x30, #0x0                   	// #0

00000000005400cc <OKToRun>:
  5400cc:	d5384240 	mrs	x0, currentel
  5400d0:	f100301f 	cmp	x0, #0xc
  5400d4:	54000080 	b.eq	5400e4 <InitEL3>  // b.none
  5400d8:	f100101f 	cmp	x0, #0x4
  5400dc:	54000980 	b.eq	54020c <InitEL1>  // b.none
  5400e0:	1400004c 	b	540210 <error>

00000000005400e4 <InitEL3>:
  5400e4:	58000e21 	ldr	x1, 5402a8 <invalidateCaches_end+0xc>
  5400e8:	d51ec001 	msr	vbar_el3, x1
  5400ec:	d53800a0 	mrs	x0, mpidr_el1
  5400f0:	92401c00 	and	x0, x0, #0xff
  5400f4:	2a0003e0 	mov	w0, w0
  5400f8:	18000d42 	ldr	w2, 5402a0 <invalidateCaches_end+0x4>
  5400fc:	52800103 	mov	w3, #0x8                   	// #8
  540100:	1b037c00 	mul	w0, w0, w3
  540104:	0b000042 	add	w2, w2, w0
  540108:	f9000041 	str	x1, [x2]
  54010c:	58000d22 	ldr	x2, 5402b0 <invalidateCaches_end+0x14>
  540110:	9100005f 	mov	sp, x2
  540114:	d2800000 	mov	x0, #0x0                   	// #0
  540118:	b2760000 	orr	x0, x0, #0x400
  54011c:	d51e1140 	msr	cptr_el3, x0
  540120:	d5033fdf 	isb
  540124:	58000ca0 	ldr	x0, 5402b8 <invalidateCaches_end+0x1c>
  540128:	f900001f 	str	xzr, [x0]
  54012c:	52800001 	mov	w1, #0x0                   	// #0
  540130:	32150021 	orr	w1, w1, #0x800
  540134:	32160021 	orr	w1, w1, #0x400
  540138:	321d0021 	orr	w1, w1, #0x8
  54013c:	321e0021 	orr	w1, w1, #0x4
  540140:	321f0021 	orr	w1, w1, #0x2
  540144:	d51e1101 	msr	scr_el3, x1
  540148:	58000bc0 	ldr	x0, 5402c0 <invalidateCaches_end+0x24>
  54014c:	d519f200 	msr	s3_1_c15_c2_0, x0
  540150:	58000bc0 	ldr	x0, 5402c8 <invalidateCaches_end+0x2c>
  540154:	d51be000 	msr	cntfrq_el0, x0
  540158:	d539f220 	mrs	x0, s3_1_c15_c2_1
  54015c:	b27a0000 	orr	x0, x0, #0x40
  540160:	d519f220 	msr	s3_1_c15_c2_1, x0
  540164:	d5033fdf 	isb
  540168:	d50e871f 	tlbi	alle3
  54016c:	d508751f 	ic	iallu
  540170:	94000029 	bl	540214 <invalidate_dcaches>
  540174:	d5033f9f 	dsb	sy
  540178:	d5033fdf 	isb
  54017c:	58000aa1 	ldr	x1, 5402d0 <invalidateCaches_end+0x34>
  540180:	d51e2001 	msr	ttbr0_el3, x1
  540184:	58000aa1 	ldr	x1, 5402d8 <invalidateCaches_end+0x3c>
  540188:	d51ea201 	msr	mair_el3, x1
  54018c:	58000aa1 	ldr	x1, 5402e0 <invalidateCaches_end+0x44>
  540190:	58000a81 	ldr	x1, 5402e0 <invalidateCaches_end+0x44>
  540194:	d51e2041 	msr	tcr_el3, x1
  540198:	d5033fdf 	isb
  54019c:	d53b4221 	mrs	x1, daif
  5401a0:	9277f821 	and	x1, x1, #0xfffffffffffffeff
  5401a4:	d51b4221 	msr	daif, x1
  5401a8:	d2800001 	mov	x1, #0x0                   	// #0
  5401ac:	b2740021 	orr	x1, x1, #0x1000
  5401b0:	b27d0021 	orr	x1, x1, #0x8
  5401b4:	b27e0021 	orr	x1, x1, #0x4
  5401b8:	b2400021 	orr	x1, x1, #0x1
  5401bc:	d51e1001 	msr	sctlr_el3, x1
  5401c0:	d5033f9f 	dsb	sy
  5401c4:	d5033fdf 	isb
  5401c8:	58fff403 	ldr	x3, 540048 <.loader>
  5401cc:	58fff1a0 	ldr	x0, 540000 <__boot_start>
  5401d0:	58fff201 	ldr	x1, 540010 <.text_ld>
  5401d4:	58fff1a2 	ldr	x2, 540008 <.text_end>
  5401d8:	cb000042 	sub	x2, x2, x0
  5401dc:	d63f0060 	blr	x3
  5401e0:	58fff1c0 	ldr	x0, 540018 <.rodata_start>
  5401e4:	58fff221 	ldr	x1, 540028 <.rodata_ld>
  5401e8:	58fff1c2 	ldr	x2, 540020 <.rodata_end>
  5401ec:	cb000042 	sub	x2, x2, x0
  5401f0:	d63f0060 	blr	x3
  5401f4:	58fff1e0 	ldr	x0, 540030 <.data_start>
  5401f8:	58fff241 	ldr	x1, 540040 <.data_ld>
  5401fc:	58fff1e2 	ldr	x2, 540038 <.data_end>
  540200:	cb000042 	sub	x2, x2, x0
  540204:	d63f0060 	blr	x3
  540208:	1400003a 	b	5402f0 <___startup_veneer>

000000000054020c <InitEL1>:
  54020c:	14000001 	b	540210 <error>

0000000000540210 <error>:
  540210:	14000000 	b	540210 <error>

0000000000540214 <invalidate_dcaches>:
  540214:	d5033bbf 	dmb	ish
  540218:	d5390020 	mrs	x0, clidr_el1
  54021c:	53186802 	ubfx	w2, w0, #24, #3
  540220:	7100005f 	cmp	w2, #0x0
  540224:	540003c0 	b.eq	54029c <invalidateCaches_end>  // b.none
  540228:	52800001 	mov	w1, #0x0                   	// #0

000000000054022c <invalidateCaches_flush_level>:
  54022c:	0b010423 	add	w3, w1, w1, lsl #1
  540230:	1ac32403 	lsr	w3, w0, w3
  540234:	53000863 	ubfx	w3, w3, #0, #3
  540238:	7100087f 	cmp	w3, #0x2
  54023c:	540002ab 	b.lt	540290 <invalidateCaches_next_level>  // b.tstop
  540240:	531f7824 	lsl	w4, w1, #1
  540244:	d51a0004 	msr	csselr_el1, x4
  540248:	d5033fdf 	isb
  54024c:	d5390004 	mrs	x4, ccsidr_el1
  540250:	53000883 	ubfx	w3, w4, #0, #3
  540254:	11000863 	add	w3, w3, #0x2
  540258:	530d6c85 	ubfx	w5, w4, #13, #15
  54025c:	53033084 	ubfx	w4, w4, #3, #10
  540260:	5ac01086 	clz	w6, w4

0000000000540264 <invalidateCaches_flush_set>:
  540264:	2a0403e8 	mov	w8, w4

0000000000540268 <invalidateCaches_flush_way>:
  540268:	531f7827 	lsl	w7, w1, #1
  54026c:	1ac320a9 	lsl	w9, w5, w3
  540270:	2a0900e7 	orr	w7, w7, w9
  540274:	1ac62109 	lsl	w9, w8, w6
  540278:	2a0900e7 	orr	w7, w7, w9
  54027c:	d5087e47 	dc	cisw, x7
  540280:	71000508 	subs	w8, w8, #0x1
  540284:	54ffff2a 	b.ge	540268 <invalidateCaches_flush_way>  // b.tcont
  540288:	710004a5 	subs	w5, w5, #0x1
  54028c:	54fffeca 	b.ge	540264 <invalidateCaches_flush_set>  // b.tcont

0000000000540290 <invalidateCaches_next_level>:
  540290:	11000421 	add	w1, w1, #0x1
  540294:	6b01005f 	cmp	w2, w1
  540298:	54fffcac 	b.gt	54022c <invalidateCaches_flush_level>

000000000054029c <invalidateCaches_end>:
  54029c:	d65f03c0 	ret
  5402a0:	fd5c0040 	.word	0xfd5c0040
  5402a4:	00000000 	udf	#0
  5402a8:	20480000 	.word	0x20480000
  5402ac:	00000000 	.word	0x00000000
  5402b0:	20483dc0 	.word	0x20483dc0
  5402b4:	00000000 	.word	0x00000000
  5402b8:	20480918 	.word	0x20480918
  5402bc:	00000000 	.word	0x00000000
  5402c0:	080ca000 	.word	0x080ca000
  5402c4:	00000000 	.word	0x00000000
  5402c8:	05f5b9f5 	.word	0x05f5b9f5
  5402cc:	00000000 	.word	0x00000000
  5402d0:	00000080 	.word	0x00000080
  5402d4:	00000000 	.word	0x00000000
  5402d8:	0400ff44 	.word	0x0400ff44
  5402dc:	000000bb 	.word	0x000000bb
  5402e0:	80823518 	.word	0x80823518
  5402e4:	00000000 	.word	0x00000000
  5402e8:	14000008 	b	540308 <__boot_end>
  5402ec:	d503201f 	nop

00000000005402f0 <___startup_veneer>:
  5402f0:	900ffa10 	adrp	x16, 20480000 <__text_start>
  5402f4:	91290210 	add	x16, x16, #0xa40
  5402f8:	d61f0200 	br	x16
	...

Disassembly of section .text:

0000000020480000 <__text_start>:
    20480000:	58001c21 	ldr	x1, 20480384 <boot>
    20480004:	d61f0020 	br	x1
	...
    20480200:	14000080 	b	20480400 <SynchronousInterruptHandler>
	...
    20480280:	140000a0 	b	20480500 <IRQInterruptHandler>
	...
    20480300:	140000c1 	b	20480604 <FIQInterruptHandler>
	...
    20480380:	140000b8 	b	20480660 <SErrorInterruptHandler>

0000000020480384 <boot>:
    20480384:	00540050 	.word	0x00540050
	...

0000000020480400 <SynchronousInterruptHandler>:
    20480400:	a9bf07e0 	stp	x0, x1, [sp, #-16]!
    20480404:	a9bf0fe2 	stp	x2, x3, [sp, #-16]!
    20480408:	a9bf17e4 	stp	x4, x5, [sp, #-16]!
    2048040c:	a9bf1fe6 	stp	x6, x7, [sp, #-16]!
    20480410:	a9bf27e8 	stp	x8, x9, [sp, #-16]!
    20480414:	a9bf2fea 	stp	x10, x11, [sp, #-16]!
    20480418:	a9bf37ec 	stp	x12, x13, [sp, #-16]!
    2048041c:	a9bf3fee 	stp	x14, x15, [sp, #-16]!
    20480420:	a9bf47f0 	stp	x16, x17, [sp, #-16]!
    20480424:	a9bf4ff2 	stp	x18, x19, [sp, #-16]!
    20480428:	a9bf7bfd 	stp	x29, x30, [sp, #-16]!
    2048042c:	d53e5200 	mrs	x0, esr_el3
    20480430:	92661400 	and	x0, x0, #0xfc000000
    20480434:	d2a38001 	mov	x1, #0x1c000000            	// #469762048
    20480438:	eb01001f 	cmp	x0, x1
    2048043c:	540004a1 	b.ne	204804d0 <restorecontext>  // b.any
    20480440:	d53e1141 	mrs	x1, cptr_el3
    20480444:	9275f821 	and	x1, x1, #0xfffffffffffffbff
    20480448:	d51e1141 	msr	cptr_el3, x1
    2048044c:	d5033fdf 	isb
    20480450:	58002680 	ldr	x0, 20480920 <FPUStatus+0x8>
    20480454:	39400001 	ldrb	w1, [x0]
    20480458:	350000e1 	cbnz	w1, 20480474 <storefloat>
    2048045c:	52800021 	mov	w1, #0x1                   	// #1
    20480460:	39000001 	strb	w1, [x0]
    20480464:	58002620 	ldr	x0, 20480928 <FPUStatus+0x10>
    20480468:	58002641 	ldr	x1, 20480930 <FPUStatus+0x18>
    2048046c:	f9000020 	str	x0, [x1]
    20480470:	14000018 	b	204804d0 <restorecontext>

0000000020480474 <storefloat>:
    20480474:	580025e1 	ldr	x1, 20480930 <FPUStatus+0x18>
    20480478:	f9400020 	ldr	x0, [x1]
    2048047c:	ac810400 	stp	q0, q1, [x0], #32
    20480480:	ac810c02 	stp	q2, q3, [x0], #32
    20480484:	ac811404 	stp	q4, q5, [x0], #32
    20480488:	ac811c06 	stp	q6, q7, [x0], #32
    2048048c:	ac812408 	stp	q8, q9, [x0], #32
    20480490:	ac812c0a 	stp	q10, q11, [x0], #32
    20480494:	ac81340c 	stp	q12, q13, [x0], #32
    20480498:	ac813c0e 	stp	q14, q15, [x0], #32
    2048049c:	ac814410 	stp	q16, q17, [x0], #32
    204804a0:	ac814c12 	stp	q18, q19, [x0], #32
    204804a4:	ac815414 	stp	q20, q21, [x0], #32
    204804a8:	ac815c16 	stp	q22, q23, [x0], #32
    204804ac:	ac816418 	stp	q24, q25, [x0], #32
    204804b0:	ac816c1a 	stp	q26, q27, [x0], #32
    204804b4:	ac81741c 	stp	q28, q29, [x0], #32
    204804b8:	ac817c1e 	stp	q30, q31, [x0], #32
    204804bc:	d53b4402 	mrs	x2, fpcr
    204804c0:	d53b4423 	mrs	x3, fpsr
    204804c4:	a8810c02 	stp	x2, x3, [x0], #16
    204804c8:	f9000020 	str	x0, [x1]
    204804cc:	14000001 	b	204804d0 <restorecontext>

00000000204804d0 <restorecontext>:
    204804d0:	a8c17bfd 	ldp	x29, x30, [sp], #16
    204804d4:	a8c14ff2 	ldp	x18, x19, [sp], #16
    204804d8:	a8c147f0 	ldp	x16, x17, [sp], #16
    204804dc:	a8c13fee 	ldp	x14, x15, [sp], #16
    204804e0:	a8c137ec 	ldp	x12, x13, [sp], #16
    204804e4:	a8c12fea 	ldp	x10, x11, [sp], #16
    204804e8:	a8c127e8 	ldp	x8, x9, [sp], #16
    204804ec:	a8c11fe6 	ldp	x6, x7, [sp], #16
    204804f0:	a8c117e4 	ldp	x4, x5, [sp], #16
    204804f4:	a8c10fe2 	ldp	x2, x3, [sp], #16
    204804f8:	a8c107e0 	ldp	x0, x1, [sp], #16
    204804fc:	d69f03e0 	eret

0000000020480500 <IRQInterruptHandler>:
    20480500:	d50342df 	msr	daifset, #0x2
    20480504:	a9bf07e0 	stp	x0, x1, [sp, #-16]!
    20480508:	a9bf0fe2 	stp	x2, x3, [sp, #-16]!
    2048050c:	a9bf17e4 	stp	x4, x5, [sp, #-16]!
    20480510:	a9bf1fe6 	stp	x6, x7, [sp, #-16]!
    20480514:	a9bf27e8 	stp	x8, x9, [sp, #-16]!
    20480518:	a9bf2fea 	stp	x10, x11, [sp, #-16]!
    2048051c:	a9bf37ec 	stp	x12, x13, [sp, #-16]!
    20480520:	a9bf3fee 	stp	x14, x15, [sp, #-16]!
    20480524:	a9bf47f0 	stp	x16, x17, [sp, #-16]!
    20480528:	a9bf4ff2 	stp	x18, x19, [sp, #-16]!
    2048052c:	a9bf7bfd 	stp	x29, x30, [sp, #-16]!
    20480530:	d53e1140 	mrs	x0, cptr_el3
    20480534:	d53e4021 	mrs	x1, elr_el3
    20480538:	d53e4002 	mrs	x2, spsr_el3
    2048053c:	a9bf07e0 	stp	x0, x1, [sp, #-16]!
    20480540:	f81f0fe2 	str	x2, [sp, #-16]!
    20480544:	d53e1141 	mrs	x1, cptr_el3
    20480548:	b2760021 	orr	x1, x1, #0x400
    2048054c:	d51e1141 	msr	cptr_el3, x1
    20480550:	d5033fdf 	isb
    20480554:	940001e7 	bl	20480cf0 <irq_handler>
    20480558:	d53e1140 	mrs	x0, cptr_el3
    2048055c:	f2760000 	ands	x0, x0, #0x400
    20480560:	540002e1 	b.ne	204805bc <RestorePrevState>  // b.any
    20480564:	58001e61 	ldr	x1, 20480930 <FPUStatus+0x18>
    20480568:	f9400020 	ldr	x0, [x1]
    2048056c:	a9ff0c02 	ldp	x2, x3, [x0, #-16]!
    20480570:	d51b4402 	msr	fpcr, x2
    20480574:	d51b4423 	msr	fpsr, x3
    20480578:	adff7c1e 	ldp	q30, q31, [x0, #-32]!
    2048057c:	adff741c 	ldp	q28, q29, [x0, #-32]!
    20480580:	adff6c1a 	ldp	q26, q27, [x0, #-32]!
    20480584:	adff6418 	ldp	q24, q25, [x0, #-32]!
    20480588:	adff5c16 	ldp	q22, q23, [x0, #-32]!
    2048058c:	adff5414 	ldp	q20, q21, [x0, #-32]!
    20480590:	adff4c12 	ldp	q18, q19, [x0, #-32]!
    20480594:	adff4410 	ldp	q16, q17, [x0, #-32]!
    20480598:	adff3c0e 	ldp	q14, q15, [x0, #-32]!
    2048059c:	adff340c 	ldp	q12, q13, [x0, #-32]!
    204805a0:	adff2c0a 	ldp	q10, q11, [x0, #-32]!
    204805a4:	adff2408 	ldp	q8, q9, [x0, #-32]!
    204805a8:	adff1c06 	ldp	q6, q7, [x0, #-32]!
    204805ac:	adff1404 	ldp	q4, q5, [x0, #-32]!
    204805b0:	adff0c02 	ldp	q2, q3, [x0, #-32]!
    204805b4:	adff0400 	ldp	q0, q1, [x0, #-32]!
    204805b8:	f9000020 	str	x0, [x1]

00000000204805bc <RestorePrevState>:
    204805bc:	f84107e2 	ldr	x2, [sp], #16
    204805c0:	a8c107e0 	ldp	x0, x1, [sp], #16
    204805c4:	d51e1140 	msr	cptr_el3, x0
    204805c8:	d51e4021 	msr	elr_el3, x1
    204805cc:	d51e4002 	msr	spsr_el3, x2
    204805d0:	a8c17bfd 	ldp	x29, x30, [sp], #16
    204805d4:	a8c14ff2 	ldp	x18, x19, [sp], #16
    204805d8:	a8c147f0 	ldp	x16, x17, [sp], #16
    204805dc:	a8c13fee 	ldp	x14, x15, [sp], #16
    204805e0:	a8c137ec 	ldp	x12, x13, [sp], #16
    204805e4:	a8c12fea 	ldp	x10, x11, [sp], #16
    204805e8:	a8c127e8 	ldp	x8, x9, [sp], #16
    204805ec:	a8c11fe6 	ldp	x6, x7, [sp], #16
    204805f0:	a8c117e4 	ldp	x4, x5, [sp], #16
    204805f4:	a8c10fe2 	ldp	x2, x3, [sp], #16
    204805f8:	a8c107e0 	ldp	x0, x1, [sp], #16
    204805fc:	d50342ff 	msr	daifclr, #0x2
    20480600:	d69f03e0 	eret

0000000020480604 <FIQInterruptHandler>:
    20480604:	a9bf07e0 	stp	x0, x1, [sp, #-16]!
    20480608:	a9bf0fe2 	stp	x2, x3, [sp, #-16]!
    2048060c:	a9bf17e4 	stp	x4, x5, [sp, #-16]!
    20480610:	a9bf1fe6 	stp	x6, x7, [sp, #-16]!
    20480614:	a9bf27e8 	stp	x8, x9, [sp, #-16]!
    20480618:	a9bf2fea 	stp	x10, x11, [sp, #-16]!
    2048061c:	a9bf37ec 	stp	x12, x13, [sp, #-16]!
    20480620:	a9bf3fee 	stp	x14, x15, [sp, #-16]!
    20480624:	a9bf47f0 	stp	x16, x17, [sp, #-16]!
    20480628:	a9bf4ff2 	stp	x18, x19, [sp, #-16]!
    2048062c:	a9bf7bfd 	stp	x29, x30, [sp, #-16]!
    20480630:	a8c17bfd 	ldp	x29, x30, [sp], #16
    20480634:	a8c14ff2 	ldp	x18, x19, [sp], #16
    20480638:	a8c147f0 	ldp	x16, x17, [sp], #16
    2048063c:	a8c13fee 	ldp	x14, x15, [sp], #16
    20480640:	a8c137ec 	ldp	x12, x13, [sp], #16
    20480644:	a8c12fea 	ldp	x10, x11, [sp], #16
    20480648:	a8c127e8 	ldp	x8, x9, [sp], #16
    2048064c:	a8c11fe6 	ldp	x6, x7, [sp], #16
    20480650:	a8c117e4 	ldp	x4, x5, [sp], #16
    20480654:	a8c10fe2 	ldp	x2, x3, [sp], #16
    20480658:	a8c107e0 	ldp	x0, x1, [sp], #16
    2048065c:	d69f03e0 	eret

0000000020480660 <SErrorInterruptHandler>:
    20480660:	a9bf07e0 	stp	x0, x1, [sp, #-16]!
    20480664:	a9bf0fe2 	stp	x2, x3, [sp, #-16]!
    20480668:	a9bf17e4 	stp	x4, x5, [sp, #-16]!
    2048066c:	a9bf1fe6 	stp	x6, x7, [sp, #-16]!
    20480670:	a9bf27e8 	stp	x8, x9, [sp, #-16]!
    20480674:	a9bf2fea 	stp	x10, x11, [sp, #-16]!
    20480678:	a9bf37ec 	stp	x12, x13, [sp, #-16]!
    2048067c:	a9bf3fee 	stp	x14, x15, [sp, #-16]!
    20480680:	a9bf47f0 	stp	x16, x17, [sp, #-16]!
    20480684:	a9bf4ff2 	stp	x18, x19, [sp, #-16]!
    20480688:	a9bf7bfd 	stp	x29, x30, [sp, #-16]!
    2048068c:	940000ff 	bl	20480a88 <exit>
    20480690:	a8c17bfd 	ldp	x29, x30, [sp], #16
    20480694:	a8c14ff2 	ldp	x18, x19, [sp], #16
    20480698:	a8c147f0 	ldp	x16, x17, [sp], #16
    2048069c:	a8c13fee 	ldp	x14, x15, [sp], #16
    204806a0:	a8c137ec 	ldp	x12, x13, [sp], #16
    204806a4:	a8c12fea 	ldp	x10, x11, [sp], #16
    204806a8:	a8c127e8 	ldp	x8, x9, [sp], #16
    204806ac:	a8c11fe6 	ldp	x6, x7, [sp], #16
    204806b0:	a8c117e4 	ldp	x4, x5, [sp], #16
    204806b4:	a8c10fe2 	ldp	x2, x3, [sp], #16
    204806b8:	a8c107e0 	ldp	x0, x1, [sp], #16
    204806bc:	d69f03e0 	eret
    204806c0:	d503201f 	nop
    204806c4:	d503201f 	nop
    204806c8:	d503201f 	nop
    204806cc:	d503201f 	nop
    204806d0:	d503201f 	nop
    204806d4:	d503201f 	nop
    204806d8:	d503201f 	nop
    204806dc:	d503201f 	nop
    204806e0:	d503201f 	nop
    204806e4:	d503201f 	nop
    204806e8:	d503201f 	nop
    204806ec:	d503201f 	nop
    204806f0:	d503201f 	nop
    204806f4:	d503201f 	nop
    204806f8:	d503201f 	nop
    204806fc:	d503201f 	nop

0000000020480700 <FPUContext>:
	...

0000000020480910 <FPUContextBase>:
	...

0000000020480918 <FPUStatus>:
	...
    20480920:	20480918 	.word	0x20480918
    20480924:	00000000 	.word	0x00000000
    20480928:	20480700 	.word	0x20480700
    2048092c:	00000000 	.word	0x00000000
    20480930:	20480910 	.word	0x20480910
    20480934:	00000000 	.word	0x00000000

0000000020480938 <main>:
    20480938:	a9bf7bfd 	stp	x29, x30, [sp, #-16]!
    2048093c:	910003fd 	mov	x29, sp
    20480940:	52800060 	mov	w0, #0x3                   	// #3
    20480944:	9400000c 	bl	20480974 <no_allocate_threshold_L1>
    20480948:	52800060 	mov	w0, #0x3                   	// #3
    2048094c:	94000018 	bl	204809ac <no_allocate_threshold_L2>
    20480950:	f0000003 	adrp	x3, 20483000 <__stack_start+0x1240>
    20480954:	d29a1802 	mov	x2, #0xd0c0                	// #53440
    20480958:	f2a00062 	movk	x2, #0x3, lsl #16
    2048095c:	91380060 	add	x0, x3, #0xe00
    20480960:	8b020001 	add	x1, x0, x2
    20480964:	3804041f 	strb	wzr, [x0], #64
    20480968:	eb01001f 	cmp	x0, x1
    2048096c:	54ffffc1 	b.ne	20480964 <main+0x2c>  // b.any
    20480970:	17fffffb 	b	2048095c <main+0x24>

0000000020480974 <no_allocate_threshold_L1>:
    20480974:	f81e0ff3 	str	x19, [sp, #-32]!
    20480978:	b9001fe0 	str	w0, [sp, #28]
    2048097c:	d539f200 	mrs	x0, s3_1_c15_c2_0
    20480980:	aa0003f3 	mov	x19, x0
    20480984:	12a0c000 	mov	w0, #0xf9ffffff            	// #-100663297
    20480988:	8a000261 	and	x1, x19, x0
    2048098c:	b9401fe0 	ldr	w0, [sp, #28]
    20480990:	53071800 	lsl	w0, w0, #25
    20480994:	2a0003e0 	mov	w0, w0
    20480998:	aa000020 	orr	x0, x1, x0
    2048099c:	d519f200 	msr	s3_1_c15_c2_0, x0
    204809a0:	d503201f 	nop
    204809a4:	f84207f3 	ldr	x19, [sp], #32
    204809a8:	d65f03c0 	ret

00000000204809ac <no_allocate_threshold_L2>:
    204809ac:	f81e0ff3 	str	x19, [sp, #-32]!
    204809b0:	b9001fe0 	str	w0, [sp, #28]
    204809b4:	d539f200 	mrs	x0, s3_1_c15_c2_0
    204809b8:	aa0003f3 	mov	x19, x0
    204809bc:	12a30000 	mov	w0, #0xe7ffffff            	// #-402653185
    204809c0:	8a000261 	and	x1, x19, x0
    204809c4:	b9401fe0 	ldr	w0, [sp, #28]
    204809c8:	53051000 	lsl	w0, w0, #27
    204809cc:	2a0003e0 	mov	w0, w0
    204809d0:	aa000020 	orr	x0, x1, x0
    204809d4:	d519f200 	msr	s3_1_c15_c2_0, x0
    204809d8:	d503201f 	nop
    204809dc:	f84207f3 	ldr	x19, [sp], #32
    204809e0:	d65f03c0 	ret

00000000204809e4 <set_outstanding_prefetching>:
    204809e4:	f81e0ff3 	str	x19, [sp, #-32]!
    204809e8:	39007fe0 	strb	w0, [sp, #31]
    204809ec:	d539f200 	mrs	x0, s3_1_c15_c2_0
    204809f0:	aa0003f3 	mov	x19, x0
    204809f4:	129c0000 	mov	w0, #0xffff1fff            	// #-57345
    204809f8:	8a000261 	and	x1, x19, x0
    204809fc:	39407fe0 	ldrb	w0, [sp, #31]
    20480a00:	53134800 	lsl	w0, w0, #13
    20480a04:	2a0003e0 	mov	w0, w0
    20480a08:	92403c00 	and	x0, x0, #0xffff
    20480a0c:	aa000020 	orr	x0, x1, x0
    20480a10:	d519f200 	msr	s3_1_c15_c2_0, x0
    20480a14:	d503201f 	nop
    20480a18:	f84207f3 	ldr	x19, [sp], #32
    20480a1c:	d65f03c0 	ret
    20480a20:	20483e00 	.word	0x20483e00
    20480a24:	00000000 	.word	0x00000000
    20480a28:	20483e00 	.word	0x20483e00
    20480a2c:	00000000 	.word	0x00000000
    20480a30:	20483dc0 	.word	0x20483dc0
    20480a34:	00000000 	.word	0x00000000
    20480a38:	20483e00 	.word	0x20483e00
    20480a3c:	00000000 	.word	0x00000000

0000000020480a40 <_startup>:
    20480a40:	ca000000 	eor	x0, x0, x0
    20480a44:	58fffee1 	ldr	x1, 20480a20 <set_outstanding_prefetching+0x3c>
    20480a48:	58ffff02 	ldr	x2, 20480a28 <set_outstanding_prefetching+0x44>
    20480a4c:	eb02003f 	cmp	x1, x2
    20480a50:	5400006a 	b.ge	20480a5c <_startup+0x1c>  // b.tcont
    20480a54:	f8008420 	str	x0, [x1], #8
    20480a58:	17fffffd 	b	20480a4c <_startup+0xc>
    20480a5c:	58fffea1 	ldr	x1, 20480a30 <set_outstanding_prefetching+0x4c>
    20480a60:	58fffec2 	ldr	x2, 20480a38 <set_outstanding_prefetching+0x54>
    20480a64:	eb02003f 	cmp	x1, x2
    20480a68:	5400006a 	b.ge	20480a74 <_startup+0x34>  // b.tcont
    20480a6c:	f8008420 	str	x0, [x1], #8
    20480a70:	17fffffd 	b	20480a64 <_startup+0x24>
    20480a74:	d2800000 	mov	x0, #0x0                   	// #0
    20480a78:	d2800001 	mov	x1, #0x0                   	// #0
    20480a7c:	97ffffaf 	bl	20480938 <main>
    20480a80:	94000002 	bl	20480a88 <exit>
    20480a84:	14000000 	b	20480a84 <_startup+0x44>

0000000020480a88 <exit>:
    20480a88:	14000000 	b	20480a88 <exit>

0000000020480a8c <mem_monitor>:
    20480a8c:	a9bc53f3 	stp	x19, x20, [sp, #-64]!
    20480a90:	3900fbff 	strb	wzr, [sp, #62]
    20480a94:	d53b9ca0 	mrs	x0, pmselr_el0
    20480a98:	aa0003f3 	mov	x19, x0
    20480a9c:	927b6a73 	and	x19, x19, #0xffffffe0
    20480aa0:	3940fbe0 	ldrb	w0, [sp, #62]
    20480aa4:	92401000 	and	x0, x0, #0x1f
    20480aa8:	aa000273 	orr	x19, x19, x0
    20480aac:	d51b9cb3 	msr	pmselr_el0, x19
    20480ab0:	d53b9d40 	mrs	x0, pmxevcntr_el0
    20480ab4:	aa0003f3 	mov	x19, x0
    20480ab8:	aa1303e0 	mov	x0, x19
    20480abc:	aa0003f4 	mov	x20, x0
    20480ac0:	52800020 	mov	w0, #0x1                   	// #1
    20480ac4:	3900ffe0 	strb	w0, [sp, #63]
    20480ac8:	d53b9ca0 	mrs	x0, pmselr_el0
    20480acc:	aa0003f3 	mov	x19, x0
    20480ad0:	927b6a73 	and	x19, x19, #0xffffffe0
    20480ad4:	3940ffe0 	ldrb	w0, [sp, #63]
    20480ad8:	92401000 	and	x0, x0, #0x1f
    20480adc:	aa000273 	orr	x19, x19, x0
    20480ae0:	d51b9cb3 	msr	pmselr_el0, x19
    20480ae4:	d53b9d40 	mrs	x0, pmxevcntr_el0
    20480ae8:	aa0003f3 	mov	x19, x0
    20480aec:	aa1303e0 	mov	x0, x19
    20480af0:	aa0003f3 	mov	x19, x0
    20480af4:	b0000000 	adrp	x0, 20481000 <outnum+0x134>
    20480af8:	91360000 	add	x0, x0, #0xd80
    20480afc:	f9400001 	ldr	x1, [x0]
    20480b00:	f0000000 	adrp	x0, 20483000 <__stack_start+0x1240>
    20480b04:	91370000 	add	x0, x0, #0xdc0
    20480b08:	f9400000 	ldr	x0, [x0]
    20480b0c:	cb000280 	sub	x0, x20, x0
    20480b10:	cb000021 	sub	x1, x1, x0
    20480b14:	b0000000 	adrp	x0, 20481000 <outnum+0x134>
    20480b18:	91360000 	add	x0, x0, #0xd80
    20480b1c:	f9000001 	str	x1, [x0]
    20480b20:	b0000000 	adrp	x0, 20481000 <outnum+0x134>
    20480b24:	91360000 	add	x0, x0, #0xd80
    20480b28:	f9400001 	ldr	x1, [x0]
    20480b2c:	f0000000 	adrp	x0, 20483000 <__stack_start+0x1240>
    20480b30:	91372000 	add	x0, x0, #0xdc8
    20480b34:	f9400000 	ldr	x0, [x0]
    20480b38:	cb000260 	sub	x0, x19, x0
    20480b3c:	cb000021 	sub	x1, x1, x0
    20480b40:	b0000000 	adrp	x0, 20481000 <outnum+0x134>
    20480b44:	91360000 	add	x0, x0, #0xd80
    20480b48:	f9000001 	str	x1, [x0]
    20480b4c:	b0000000 	adrp	x0, 20481000 <outnum+0x134>
    20480b50:	91360000 	add	x0, x0, #0xd80
    20480b54:	f9400000 	ldr	x0, [x0]
    20480b58:	9100c801 	add	x1, x0, #0x32
    20480b5c:	b0000000 	adrp	x0, 20481000 <outnum+0x134>
    20480b60:	91360000 	add	x0, x0, #0xd80
    20480b64:	f9000001 	str	x1, [x0]
    20480b68:	f0000000 	adrp	x0, 20483000 <__stack_start+0x1240>
    20480b6c:	91370000 	add	x0, x0, #0xdc0
    20480b70:	f9000014 	str	x20, [x0]
    20480b74:	f0000000 	adrp	x0, 20483000 <__stack_start+0x1240>
    20480b78:	91372000 	add	x0, x0, #0xdc8
    20480b7c:	f9000013 	str	x19, [x0]
    20480b80:	14000030 	b	20480c40 <mem_monitor+0x1b4>
    20480b84:	d2800640 	mov	x0, #0x32                  	// #50
    20480b88:	f9001be0 	str	x0, [sp, #48]
    20480b8c:	d53be220 	mrs	x0, cntp_ctl_el0
    20480b90:	aa0003f3 	mov	x19, x0
    20480b94:	927f7a73 	and	x19, x19, #0xfffffffe
    20480b98:	b27f0273 	orr	x19, x19, #0x2
    20480b9c:	d51be233 	msr	cntp_ctl_el0, x19
    20480ba0:	d503201f 	nop
    20480ba4:	fd401be0 	ldr	d0, [sp, #48]
    20480ba8:	7e61d800 	ucvtf	d0, d0
    20480bac:	d2d09000 	mov	x0, #0x848000000000        	// #145685290680320
    20480bb0:	f2e825c0 	movk	x0, #0x412e, lsl #48
    20480bb4:	9e670001 	fmov	d1, x0
    20480bb8:	1e611800 	fdiv	d0, d0, d1
    20480bbc:	b0000000 	adrp	x0, 20481000 <outnum+0x134>
    20480bc0:	fd457001 	ldr	d1, [x0, #2784]
    20480bc4:	1e610801 	fmul	d1, d0, d1
    20480bc8:	1e601000 	fmov	d0, #2.000000000000000000e+00
    20480bcc:	1e601820 	fdiv	d0, d1, d0
    20480bd0:	1e780000 	fcvtzs	w0, d0
    20480bd4:	93407c00 	sxtw	x0, w0
    20480bd8:	f90017e0 	str	x0, [sp, #40]
    20480bdc:	f94017e0 	ldr	x0, [sp, #40]
    20480be0:	d51be200 	msr	cntp_tval_el0, x0
    20480be4:	d503201f 	nop
    20480be8:	d53be220 	mrs	x0, cntp_ctl_el0
    20480bec:	aa0003f3 	mov	x19, x0
    20480bf0:	b2400273 	orr	x19, x19, #0x1
    20480bf4:	12800040 	mov	w0, #0xfffffffd            	// #-3
    20480bf8:	8a000273 	and	x19, x19, x0
    20480bfc:	d51be233 	msr	cntp_ctl_el0, x19
    20480c00:	d503201f 	nop
    20480c04:	d503201f 	nop
    20480c08:	d503207f 	wfi
    20480c0c:	d53be220 	mrs	x0, cntp_ctl_el0
    20480c10:	aa0003f3 	mov	x19, x0
    20480c14:	927f7a73 	and	x19, x19, #0xfffffffe
    20480c18:	b27f0273 	orr	x19, x19, #0x2
    20480c1c:	d51be233 	msr	cntp_ctl_el0, x19
    20480c20:	d503201f 	nop
    20480c24:	b0000000 	adrp	x0, 20481000 <outnum+0x134>
    20480c28:	91360000 	add	x0, x0, #0xd80
    20480c2c:	f9400000 	ldr	x0, [x0]
    20480c30:	9100c801 	add	x1, x0, #0x32
    20480c34:	b0000000 	adrp	x0, 20481000 <outnum+0x134>
    20480c38:	91360000 	add	x0, x0, #0xd80
    20480c3c:	f9000001 	str	x1, [x0]
    20480c40:	b0000000 	adrp	x0, 20481000 <outnum+0x134>
    20480c44:	91360000 	add	x0, x0, #0xd80
    20480c48:	f9400001 	ldr	x1, [x0]
    20480c4c:	b0000000 	adrp	x0, 20481000 <outnum+0x134>
    20480c50:	912b6000 	add	x0, x0, #0xad8
    20480c54:	f9400000 	ldr	x0, [x0]
    20480c58:	eb00003f 	cmp	x1, x0
    20480c5c:	54fff94b 	b.lt	20480b84 <mem_monitor+0xf8>  // b.tstop
    20480c60:	d2800640 	mov	x0, #0x32                  	// #50
    20480c64:	f90013e0 	str	x0, [sp, #32]
    20480c68:	d53be220 	mrs	x0, cntp_ctl_el0
    20480c6c:	aa0003f3 	mov	x19, x0
    20480c70:	927f7a73 	and	x19, x19, #0xfffffffe
    20480c74:	b27f0273 	orr	x19, x19, #0x2
    20480c78:	d51be233 	msr	cntp_ctl_el0, x19
    20480c7c:	d503201f 	nop
    20480c80:	fd4013e0 	ldr	d0, [sp, #32]
    20480c84:	7e61d800 	ucvtf	d0, d0
    20480c88:	d2d09000 	mov	x0, #0x848000000000        	// #145685290680320
    20480c8c:	f2e825c0 	movk	x0, #0x412e, lsl #48
    20480c90:	9e670001 	fmov	d1, x0
    20480c94:	1e611800 	fdiv	d0, d0, d1
    20480c98:	b0000000 	adrp	x0, 20481000 <outnum+0x134>
    20480c9c:	fd457001 	ldr	d1, [x0, #2784]
    20480ca0:	1e610801 	fmul	d1, d0, d1
    20480ca4:	1e601000 	fmov	d0, #2.000000000000000000e+00
    20480ca8:	1e601820 	fdiv	d0, d1, d0
    20480cac:	1e780000 	fcvtzs	w0, d0
    20480cb0:	93407c00 	sxtw	x0, w0
    20480cb4:	f9000fe0 	str	x0, [sp, #24]
    20480cb8:	f9400fe0 	ldr	x0, [sp, #24]
    20480cbc:	d51be200 	msr	cntp_tval_el0, x0
    20480cc0:	d503201f 	nop
    20480cc4:	d53be220 	mrs	x0, cntp_ctl_el0
    20480cc8:	aa0003f3 	mov	x19, x0
    20480ccc:	b2400273 	orr	x19, x19, #0x1
    20480cd0:	12800040 	mov	w0, #0xfffffffd            	// #-3
    20480cd4:	8a000273 	and	x19, x19, x0
    20480cd8:	d51be233 	msr	cntp_ctl_el0, x19
    20480cdc:	d503201f 	nop
    20480ce0:	d503201f 	nop
    20480ce4:	d503201f 	nop
    20480ce8:	a8c453f3 	ldp	x19, x20, [sp], #64
    20480cec:	d65f03c0 	ret

0000000020480cf0 <irq_handler>:
    20480cf0:	a9bd7bfd 	stp	x29, x30, [sp, #-48]!
    20480cf4:	910003fd 	mov	x29, sp
    20480cf8:	f9000bf3 	str	x19, [sp, #16]
    20480cfc:	d2800180 	mov	x0, #0xc                   	// #12
    20480d00:	f2bf2040 	movk	x0, #0xf902, lsl #16
    20480d04:	b9400000 	ldr	w0, [x0]
    20480d08:	b9002fe0 	str	w0, [sp, #44]
    20480d0c:	b9402fe0 	ldr	w0, [sp, #44]
    20480d10:	12002000 	and	w0, w0, #0x1ff
    20480d14:	7100781f 	cmp	w0, #0x1e
    20480d18:	540001a1 	b.ne	20480d4c <irq_handler+0x5c>  // b.any
    20480d1c:	d2800200 	mov	x0, #0x10                  	// #16
    20480d20:	f2bf2040 	movk	x0, #0xf902, lsl #16
    20480d24:	b9402fe1 	ldr	w1, [sp, #44]
    20480d28:	b9000001 	str	w1, [x0]
    20480d2c:	d53be220 	mrs	x0, cntp_ctl_el0
    20480d30:	aa0003f3 	mov	x19, x0
    20480d34:	927f7a73 	and	x19, x19, #0xfffffffe
    20480d38:	b27f0273 	orr	x19, x19, #0x2
    20480d3c:	d51be233 	msr	cntp_ctl_el0, x19
    20480d40:	d503201f 	nop
    20480d44:	97ffff52 	bl	20480a8c <mem_monitor>
    20480d48:	14000006 	b	20480d60 <irq_handler+0x70>
    20480d4c:	b9402fe1 	ldr	w1, [sp, #44]
    20480d50:	b0000000 	adrp	x0, 20481000 <outnum+0x134>
    20480d54:	912b0000 	add	x0, x0, #0xac0
    20480d58:	94000176 	bl	20481330 <printf>
    20480d5c:	d503201f 	nop
    20480d60:	d2800200 	mov	x0, #0x10                  	// #16
    20480d64:	f2bf2040 	movk	x0, #0xf902, lsl #16
    20480d68:	b9402fe1 	ldr	w1, [sp, #44]
    20480d6c:	b9000001 	str	w1, [x0]
    20480d70:	d503201f 	nop
    20480d74:	f9400bf3 	ldr	x19, [sp, #16]
    20480d78:	a8c37bfd 	ldp	x29, x30, [sp], #48
    20480d7c:	d65f03c0 	ret

0000000020480d80 <padding>:
    20480d80:	a9bd7bfd 	stp	x29, x30, [sp, #-48]!
    20480d84:	910003fd 	mov	x29, sp
    20480d88:	b9001fe0 	str	w0, [sp, #28]
    20480d8c:	f9000be1 	str	x1, [sp, #16]
    20480d90:	f9400be0 	ldr	x0, [sp, #16]
    20480d94:	b9401000 	ldr	w0, [x0, #16]
    20480d98:	7100001f 	cmp	w0, #0x0
    20480d9c:	54000320 	b.eq	20480e00 <padding+0x80>  // b.none
    20480da0:	b9401fe0 	ldr	w0, [sp, #28]
    20480da4:	7100001f 	cmp	w0, #0x0
    20480da8:	540002c0 	b.eq	20480e00 <padding+0x80>  // b.none
    20480dac:	f9400be0 	ldr	x0, [sp, #16]
    20480db0:	b9400001 	ldr	w1, [x0]
    20480db4:	f9400be0 	ldr	x0, [sp, #16]
    20480db8:	b9400400 	ldr	w0, [x0, #4]
    20480dbc:	6b00003f 	cmp	w1, w0
    20480dc0:	5400020a 	b.ge	20480e00 <padding+0x80>  // b.tcont
    20480dc4:	f9400be0 	ldr	x0, [sp, #16]
    20480dc8:	b9400000 	ldr	w0, [x0]
    20480dcc:	b9002fe0 	str	w0, [sp, #44]
    20480dd0:	14000007 	b	20480dec <padding+0x6c>
    20480dd4:	f9400be0 	ldr	x0, [sp, #16]
    20480dd8:	39403000 	ldrb	w0, [x0, #12]
    20480ddc:	94000318 	bl	20481a3c <outbyte>
    20480de0:	b9402fe0 	ldr	w0, [sp, #44]
    20480de4:	11000400 	add	w0, w0, #0x1
    20480de8:	b9002fe0 	str	w0, [sp, #44]
    20480dec:	f9400be0 	ldr	x0, [sp, #16]
    20480df0:	b9400400 	ldr	w0, [x0, #4]
    20480df4:	b9402fe1 	ldr	w1, [sp, #44]
    20480df8:	6b00003f 	cmp	w1, w0
    20480dfc:	54fffecb 	b.lt	20480dd4 <padding+0x54>  // b.tstop
    20480e00:	d503201f 	nop
    20480e04:	a8c37bfd 	ldp	x29, x30, [sp], #48
    20480e08:	d65f03c0 	ret

0000000020480e0c <outs>:
    20480e0c:	a9bd7bfd 	stp	x29, x30, [sp, #-48]!
    20480e10:	910003fd 	mov	x29, sp
    20480e14:	f9000fe0 	str	x0, [sp, #24]
    20480e18:	f9000be1 	str	x1, [sp, #16]
    20480e1c:	f9400fe0 	ldr	x0, [sp, #24]
    20480e20:	f90017e0 	str	x0, [sp, #40]
    20480e24:	f94017e0 	ldr	x0, [sp, #40]
    20480e28:	f100001f 	cmp	x0, #0x0
    20480e2c:	54000420 	b.eq	20480eb0 <outs+0xa4>  // b.none
    20480e30:	f94017e0 	ldr	x0, [sp, #40]
    20480e34:	94000166 	bl	204813cc <strlen>
    20480e38:	2a0003e1 	mov	w1, w0
    20480e3c:	f9400be0 	ldr	x0, [sp, #16]
    20480e40:	b9000001 	str	w1, [x0]
    20480e44:	f9400be0 	ldr	x0, [sp, #16]
    20480e48:	b9401400 	ldr	w0, [x0, #20]
    20480e4c:	7100001f 	cmp	w0, #0x0
    20480e50:	1a9f17e0 	cset	w0, eq	// eq = none
    20480e54:	12001c00 	and	w0, w0, #0xff
    20480e58:	f9400be1 	ldr	x1, [sp, #16]
    20480e5c:	97ffffc9 	bl	20480d80 <padding>
    20480e60:	1400000c 	b	20480e90 <outs+0x84>
    20480e64:	f9400be0 	ldr	x0, [sp, #16]
    20480e68:	b9400800 	ldr	w0, [x0, #8]
    20480e6c:	51000401 	sub	w1, w0, #0x1
    20480e70:	f9400be0 	ldr	x0, [sp, #16]
    20480e74:	b9000801 	str	w1, [x0, #8]
    20480e78:	f94017e0 	ldr	x0, [sp, #40]
    20480e7c:	39400000 	ldrb	w0, [x0]
    20480e80:	940002ef 	bl	20481a3c <outbyte>
    20480e84:	f94017e0 	ldr	x0, [sp, #40]
    20480e88:	91000400 	add	x0, x0, #0x1
    20480e8c:	f90017e0 	str	x0, [sp, #40]
    20480e90:	f94017e0 	ldr	x0, [sp, #40]
    20480e94:	39400000 	ldrb	w0, [x0]
    20480e98:	7100001f 	cmp	w0, #0x0
    20480e9c:	540000a0 	b.eq	20480eb0 <outs+0xa4>  // b.none
    20480ea0:	f9400be0 	ldr	x0, [sp, #16]
    20480ea4:	b9400800 	ldr	w0, [x0, #8]
    20480ea8:	7100001f 	cmp	w0, #0x0
    20480eac:	54fffdc1 	b.ne	20480e64 <outs+0x58>  // b.any
    20480eb0:	f9400be0 	ldr	x0, [sp, #16]
    20480eb4:	b9401400 	ldr	w0, [x0, #20]
    20480eb8:	f9400be1 	ldr	x1, [sp, #16]
    20480ebc:	97ffffb1 	bl	20480d80 <padding>
    20480ec0:	d503201f 	nop
    20480ec4:	a8c37bfd 	ldp	x29, x30, [sp], #48
    20480ec8:	d65f03c0 	ret

0000000020480ecc <outnum>:
    20480ecc:	a9b97bfd 	stp	x29, x30, [sp, #-112]!
    20480ed0:	910003fd 	mov	x29, sp
    20480ed4:	b9001fe0 	str	w0, [sp, #28]
    20480ed8:	b9001be1 	str	w1, [sp, #24]
    20480edc:	f9000be2 	str	x2, [sp, #16]
    20480ee0:	b0000000 	adrp	x0, 20481000 <outnum+0x134>
    20480ee4:	912ba000 	add	x0, x0, #0xae8
    20480ee8:	9100a3e2 	add	x2, sp, #0x28
    20480eec:	aa0003e3 	mov	x3, x0
    20480ef0:	a9400460 	ldp	x0, x1, [x3]
    20480ef4:	a9000440 	stp	x0, x1, [x2]
    20480ef8:	39404060 	ldrb	w0, [x3, #16]
    20480efc:	39004040 	strb	w0, [x2, #16]
    20480f00:	b9006bff 	str	wzr, [sp, #104]
    20480f04:	14000008 	b	20480f24 <outnum+0x58>
    20480f08:	b9806be0 	ldrsw	x0, [sp, #104]
    20480f0c:	910103e1 	add	x1, sp, #0x40
    20480f10:	52800602 	mov	w2, #0x30                  	// #48
    20480f14:	38206822 	strb	w2, [x1, x0]
    20480f18:	b9406be0 	ldr	w0, [sp, #104]
    20480f1c:	11000400 	add	w0, w0, #0x1
    20480f20:	b9006be0 	str	w0, [sp, #104]
    20480f24:	b9406be0 	ldr	w0, [sp, #104]
    20480f28:	71007c1f 	cmp	w0, #0x1f
    20480f2c:	54fffeed 	b.le	20480f08 <outnum+0x3c>
    20480f30:	f9400be0 	ldr	x0, [sp, #16]
    20480f34:	b9401800 	ldr	w0, [x0, #24]
    20480f38:	7100001f 	cmp	w0, #0x0
    20480f3c:	540001a1 	b.ne	20480f70 <outnum+0xa4>  // b.any
    20480f40:	b9401be0 	ldr	w0, [sp, #24]
    20480f44:	7100281f 	cmp	w0, #0xa
    20480f48:	54000141 	b.ne	20480f70 <outnum+0xa4>  // b.any
    20480f4c:	b9401fe0 	ldr	w0, [sp, #28]
    20480f50:	7100001f 	cmp	w0, #0x0
    20480f54:	540000ea 	b.ge	20480f70 <outnum+0xa4>  // b.tcont
    20480f58:	52800020 	mov	w0, #0x1                   	// #1
    20480f5c:	b9006fe0 	str	w0, [sp, #108]
    20480f60:	b9401fe0 	ldr	w0, [sp, #28]
    20480f64:	4b0003e0 	neg	w0, w0
    20480f68:	b90067e0 	str	w0, [sp, #100]
    20480f6c:	14000004 	b	20480f7c <outnum+0xb0>
    20480f70:	b9401fe0 	ldr	w0, [sp, #28]
    20480f74:	b90067e0 	str	w0, [sp, #100]
    20480f78:	b9006fff 	str	wzr, [sp, #108]
    20480f7c:	b9006bff 	str	wzr, [sp, #104]
    20480f80:	b9401be1 	ldr	w1, [sp, #24]
    20480f84:	b94067e0 	ldr	w0, [sp, #100]
    20480f88:	1ac10802 	udiv	w2, w0, w1
    20480f8c:	1b017c41 	mul	w1, w2, w1
    20480f90:	4b010000 	sub	w0, w0, w1
    20480f94:	2a0003e0 	mov	w0, w0
    20480f98:	9100a3e1 	add	x1, sp, #0x28
    20480f9c:	38606822 	ldrb	w2, [x1, x0]
    20480fa0:	b9806be0 	ldrsw	x0, [sp, #104]
    20480fa4:	910103e1 	add	x1, sp, #0x40
    20480fa8:	38206822 	strb	w2, [x1, x0]
    20480fac:	b9406be0 	ldr	w0, [sp, #104]
    20480fb0:	11000400 	add	w0, w0, #0x1
    20480fb4:	b9006be0 	str	w0, [sp, #104]
    20480fb8:	b9401be0 	ldr	w0, [sp, #24]
    20480fbc:	b94067e1 	ldr	w1, [sp, #100]
    20480fc0:	1ac00820 	udiv	w0, w1, w0
    20480fc4:	b90067e0 	str	w0, [sp, #100]
    20480fc8:	b94067e0 	ldr	w0, [sp, #100]
    20480fcc:	7100001f 	cmp	w0, #0x0
    20480fd0:	54fffd81 	b.ne	20480f80 <outnum+0xb4>  // b.any
    20480fd4:	b9406fe0 	ldr	w0, [sp, #108]
    20480fd8:	7100001f 	cmp	w0, #0x0
    20480fdc:	54000100 	b.eq	20480ffc <outnum+0x130>  // b.none
    20480fe0:	b9806be0 	ldrsw	x0, [sp, #104]
    20480fe4:	910103e1 	add	x1, sp, #0x40
    20480fe8:	528005a2 	mov	w2, #0x2d                  	// #45
    20480fec:	38206822 	strb	w2, [x1, x0]
    20480ff0:	b9406be0 	ldr	w0, [sp, #104]
    20480ff4:	11000400 	add	w0, w0, #0x1
    20480ff8:	b9006be0 	str	w0, [sp, #104]
    20480ffc:	b9806be0 	ldrsw	x0, [sp, #104]
    20481000:	910103e1 	add	x1, sp, #0x40
    20481004:	3820683f 	strb	wzr, [x1, x0]
    20481008:	b9406be0 	ldr	w0, [sp, #104]
    2048100c:	51000400 	sub	w0, w0, #0x1
    20481010:	b9006be0 	str	w0, [sp, #104]
    20481014:	910103e0 	add	x0, sp, #0x40
    20481018:	940000ed 	bl	204813cc <strlen>
    2048101c:	2a0003e1 	mov	w1, w0
    20481020:	f9400be0 	ldr	x0, [sp, #16]
    20481024:	b9000001 	str	w1, [x0]
    20481028:	f9400be0 	ldr	x0, [sp, #16]
    2048102c:	b9401400 	ldr	w0, [x0, #20]
    20481030:	7100001f 	cmp	w0, #0x0
    20481034:	1a9f17e0 	cset	w0, eq	// eq = none
    20481038:	12001c00 	and	w0, w0, #0xff
    2048103c:	f9400be1 	ldr	x1, [sp, #16]
    20481040:	97ffff50 	bl	20480d80 <padding>
    20481044:	14000008 	b	20481064 <outnum+0x198>
    20481048:	b9806be0 	ldrsw	x0, [sp, #104]
    2048104c:	910103e1 	add	x1, sp, #0x40
    20481050:	38606820 	ldrb	w0, [x1, x0]
    20481054:	9400027a 	bl	20481a3c <outbyte>
    20481058:	b9406be0 	ldr	w0, [sp, #104]
    2048105c:	51000400 	sub	w0, w0, #0x1
    20481060:	b9006be0 	str	w0, [sp, #104]
    20481064:	b9406be0 	ldr	w0, [sp, #104]
    20481068:	7100001f 	cmp	w0, #0x0
    2048106c:	54fffeea 	b.ge	20481048 <outnum+0x17c>  // b.tcont
    20481070:	f9400be0 	ldr	x0, [sp, #16]
    20481074:	b9401400 	ldr	w0, [x0, #20]
    20481078:	f9400be1 	ldr	x1, [sp, #16]
    2048107c:	97ffff41 	bl	20480d80 <padding>
    20481080:	d503201f 	nop
    20481084:	a8c77bfd 	ldp	x29, x30, [sp], #112
    20481088:	d65f03c0 	ret

000000002048108c <outnum1>:
    2048108c:	a9b67bfd 	stp	x29, x30, [sp, #-160]!
    20481090:	910003fd 	mov	x29, sp
    20481094:	f90017e0 	str	x0, [sp, #40]
    20481098:	b90027e1 	str	w1, [sp, #36]
    2048109c:	f9000fe2 	str	x2, [sp, #24]
    204810a0:	90000000 	adrp	x0, 20481000 <outnum+0x134>
    204810a4:	912ba000 	add	x0, x0, #0xae8
    204810a8:	9100e3e2 	add	x2, sp, #0x38
    204810ac:	aa0003e3 	mov	x3, x0
    204810b0:	a9400460 	ldp	x0, x1, [x3]
    204810b4:	a9000440 	stp	x0, x1, [x2]
    204810b8:	39404060 	ldrb	w0, [x3, #16]
    204810bc:	39004040 	strb	w0, [x2, #16]
    204810c0:	b9009bff 	str	wzr, [sp, #152]
    204810c4:	14000008 	b	204810e4 <outnum1+0x58>
    204810c8:	b9809be0 	ldrsw	x0, [sp, #152]
    204810cc:	910143e1 	add	x1, sp, #0x50
    204810d0:	52800602 	mov	w2, #0x30                  	// #48
    204810d4:	38206822 	strb	w2, [x1, x0]
    204810d8:	b9409be0 	ldr	w0, [sp, #152]
    204810dc:	11000400 	add	w0, w0, #0x1
    204810e0:	b9009be0 	str	w0, [sp, #152]
    204810e4:	b9409be0 	ldr	w0, [sp, #152]
    204810e8:	7100fc1f 	cmp	w0, #0x3f
    204810ec:	54fffeed 	b.le	204810c8 <outnum1+0x3c>
    204810f0:	f9400fe0 	ldr	x0, [sp, #24]
    204810f4:	b9401800 	ldr	w0, [x0, #24]
    204810f8:	7100001f 	cmp	w0, #0x0
    204810fc:	540001a1 	b.ne	20481130 <outnum1+0xa4>  // b.any
    20481100:	b94027e0 	ldr	w0, [sp, #36]
    20481104:	7100281f 	cmp	w0, #0xa
    20481108:	54000141 	b.ne	20481130 <outnum1+0xa4>  // b.any
    2048110c:	f94017e0 	ldr	x0, [sp, #40]
    20481110:	f100001f 	cmp	x0, #0x0
    20481114:	540000ea 	b.ge	20481130 <outnum1+0xa4>  // b.tcont
    20481118:	52800020 	mov	w0, #0x1                   	// #1
    2048111c:	b9009fe0 	str	w0, [sp, #156]
    20481120:	f94017e0 	ldr	x0, [sp, #40]
    20481124:	cb0003e0 	neg	x0, x0
    20481128:	f9004be0 	str	x0, [sp, #144]
    2048112c:	14000004 	b	2048113c <outnum1+0xb0>
    20481130:	f94017e0 	ldr	x0, [sp, #40]
    20481134:	f9004be0 	str	x0, [sp, #144]
    20481138:	b9009fff 	str	wzr, [sp, #156]
    2048113c:	b9009bff 	str	wzr, [sp, #152]
    20481140:	b98027e1 	ldrsw	x1, [sp, #36]
    20481144:	f9404be0 	ldr	x0, [sp, #144]
    20481148:	9ac10802 	udiv	x2, x0, x1
    2048114c:	9b017c41 	mul	x1, x2, x1
    20481150:	cb010000 	sub	x0, x0, x1
    20481154:	9100e3e1 	add	x1, sp, #0x38
    20481158:	38606822 	ldrb	w2, [x1, x0]
    2048115c:	b9809be0 	ldrsw	x0, [sp, #152]
    20481160:	910143e1 	add	x1, sp, #0x50
    20481164:	38206822 	strb	w2, [x1, x0]
    20481168:	b9409be0 	ldr	w0, [sp, #152]
    2048116c:	11000400 	add	w0, w0, #0x1
    20481170:	b9009be0 	str	w0, [sp, #152]
    20481174:	b98027e0 	ldrsw	x0, [sp, #36]
    20481178:	f9404be1 	ldr	x1, [sp, #144]
    2048117c:	9ac00820 	udiv	x0, x1, x0
    20481180:	f9004be0 	str	x0, [sp, #144]
    20481184:	f9404be0 	ldr	x0, [sp, #144]
    20481188:	f100001f 	cmp	x0, #0x0
    2048118c:	54fffda1 	b.ne	20481140 <outnum1+0xb4>  // b.any
    20481190:	b9409fe0 	ldr	w0, [sp, #156]
    20481194:	7100001f 	cmp	w0, #0x0
    20481198:	54000100 	b.eq	204811b8 <outnum1+0x12c>  // b.none
    2048119c:	b9809be0 	ldrsw	x0, [sp, #152]
    204811a0:	910143e1 	add	x1, sp, #0x50
    204811a4:	528005a2 	mov	w2, #0x2d                  	// #45
    204811a8:	38206822 	strb	w2, [x1, x0]
    204811ac:	b9409be0 	ldr	w0, [sp, #152]
    204811b0:	11000400 	add	w0, w0, #0x1
    204811b4:	b9009be0 	str	w0, [sp, #152]
    204811b8:	b9809be0 	ldrsw	x0, [sp, #152]
    204811bc:	910143e1 	add	x1, sp, #0x50
    204811c0:	3820683f 	strb	wzr, [x1, x0]
    204811c4:	b9409be0 	ldr	w0, [sp, #152]
    204811c8:	51000400 	sub	w0, w0, #0x1
    204811cc:	b9009be0 	str	w0, [sp, #152]
    204811d0:	910143e0 	add	x0, sp, #0x50
    204811d4:	9400007e 	bl	204813cc <strlen>
    204811d8:	2a0003e1 	mov	w1, w0
    204811dc:	f9400fe0 	ldr	x0, [sp, #24]
    204811e0:	b9000001 	str	w1, [x0]
    204811e4:	f9400fe0 	ldr	x0, [sp, #24]
    204811e8:	b9401400 	ldr	w0, [x0, #20]
    204811ec:	7100001f 	cmp	w0, #0x0
    204811f0:	1a9f17e0 	cset	w0, eq	// eq = none
    204811f4:	12001c00 	and	w0, w0, #0xff
    204811f8:	f9400fe1 	ldr	x1, [sp, #24]
    204811fc:	97fffee1 	bl	20480d80 <padding>
    20481200:	14000008 	b	20481220 <outnum1+0x194>
    20481204:	b9809be0 	ldrsw	x0, [sp, #152]
    20481208:	910143e1 	add	x1, sp, #0x50
    2048120c:	38606820 	ldrb	w0, [x1, x0]
    20481210:	9400020b 	bl	20481a3c <outbyte>
    20481214:	b9409be0 	ldr	w0, [sp, #152]
    20481218:	51000400 	sub	w0, w0, #0x1
    2048121c:	b9009be0 	str	w0, [sp, #152]
    20481220:	b9409be0 	ldr	w0, [sp, #152]
    20481224:	7100001f 	cmp	w0, #0x0
    20481228:	54fffeea 	b.ge	20481204 <outnum1+0x178>  // b.tcont
    2048122c:	f9400fe0 	ldr	x0, [sp, #24]
    20481230:	b9401400 	ldr	w0, [x0, #20]
    20481234:	f9400fe1 	ldr	x1, [sp, #24]
    20481238:	97fffed2 	bl	20480d80 <padding>
    2048123c:	d503201f 	nop
    20481240:	a8ca7bfd 	ldp	x29, x30, [sp], #160
    20481244:	d65f03c0 	ret

0000000020481248 <getnum>:
    20481248:	d100c3ff 	sub	sp, sp, #0x30
    2048124c:	f90007e0 	str	x0, [sp, #8]
    20481250:	b9002fff 	str	wzr, [sp, #44]
    20481254:	b9001fff 	str	wzr, [sp, #28]
    20481258:	f94007e0 	ldr	x0, [sp, #8]
    2048125c:	f9400000 	ldr	x0, [x0]
    20481260:	f90013e0 	str	x0, [sp, #32]
    20481264:	1400001c 	b	204812d4 <getnum+0x8c>
    20481268:	f94013e0 	ldr	x0, [sp, #32]
    2048126c:	39400000 	ldrb	w0, [x0]
    20481270:	92401c00 	and	x0, x0, #0xff
    20481274:	91000401 	add	x1, x0, #0x1
    20481278:	90000000 	adrp	x0, 20481000 <outnum+0x134>
    2048127c:	91316000 	add	x0, x0, #0xc58
    20481280:	8b000020 	add	x0, x1, x0
    20481284:	39400000 	ldrb	w0, [x0]
    20481288:	121e0000 	and	w0, w0, #0x4
    2048128c:	b9001fe0 	str	w0, [sp, #28]
    20481290:	b9401fe0 	ldr	w0, [sp, #28]
    20481294:	7100001f 	cmp	w0, #0x0
    20481298:	54000260 	b.eq	204812e4 <getnum+0x9c>  // b.none
    2048129c:	b9402fe1 	ldr	w1, [sp, #44]
    204812a0:	2a0103e0 	mov	w0, w1
    204812a4:	531e7400 	lsl	w0, w0, #2
    204812a8:	0b010000 	add	w0, w0, w1
    204812ac:	531f7800 	lsl	w0, w0, #1
    204812b0:	2a0003e1 	mov	w1, w0
    204812b4:	f94013e0 	ldr	x0, [sp, #32]
    204812b8:	39400000 	ldrb	w0, [x0]
    204812bc:	5100c000 	sub	w0, w0, #0x30
    204812c0:	0b000020 	add	w0, w1, w0
    204812c4:	b9002fe0 	str	w0, [sp, #44]
    204812c8:	f94013e0 	ldr	x0, [sp, #32]
    204812cc:	91000400 	add	x0, x0, #0x1
    204812d0:	f90013e0 	str	x0, [sp, #32]
    204812d4:	f94013e0 	ldr	x0, [sp, #32]
    204812d8:	f100001f 	cmp	x0, #0x0
    204812dc:	54fffc61 	b.ne	20481268 <getnum+0x20>  // b.any
    204812e0:	14000002 	b	204812e8 <getnum+0xa0>
    204812e4:	d503201f 	nop
    204812e8:	f94007e0 	ldr	x0, [sp, #8]
    204812ec:	f94013e1 	ldr	x1, [sp, #32]
    204812f0:	f9000001 	str	x1, [x0]
    204812f4:	b9402fe0 	ldr	w0, [sp, #44]
    204812f8:	9100c3ff 	add	sp, sp, #0x30
    204812fc:	d65f03c0 	ret

0000000020481300 <puts>:
    20481300:	a9be7bfd 	stp	x29, x30, [sp, #-32]!
    20481304:	910003fd 	mov	x29, sp
    20481308:	f9000fe0 	str	x0, [sp, #24]
    2048130c:	f9400fe1 	ldr	x1, [sp, #24]
    20481310:	90000000 	adrp	x0, 20481000 <outnum+0x134>
    20481314:	912c0000 	add	x0, x0, #0xb00
    20481318:	94000006 	bl	20481330 <printf>
    2048131c:	52800140 	mov	w0, #0xa                   	// #10
    20481320:	940001c7 	bl	20481a3c <outbyte>
    20481324:	52800000 	mov	w0, #0x0                   	// #0
    20481328:	a8c27bfd 	ldp	x29, x30, [sp], #32
    2048132c:	d65f03c0 	ret

0000000020481330 <printf>:
    20481330:	a9ae7bfd 	stp	x29, x30, [sp, #-288]!
    20481334:	910003fd 	mov	x29, sp
    20481338:	f9001fe0 	str	x0, [sp, #56]
    2048133c:	f90077e1 	str	x1, [sp, #232]
    20481340:	f9007be2 	str	x2, [sp, #240]
    20481344:	f9007fe3 	str	x3, [sp, #248]
    20481348:	f90083e4 	str	x4, [sp, #256]
    2048134c:	f90087e5 	str	x5, [sp, #264]
    20481350:	f9008be6 	str	x6, [sp, #272]
    20481354:	f9008fe7 	str	x7, [sp, #280]
    20481358:	3d801be0 	str	q0, [sp, #96]
    2048135c:	3d801fe1 	str	q1, [sp, #112]
    20481360:	3d8023e2 	str	q2, [sp, #128]
    20481364:	3d8027e3 	str	q3, [sp, #144]
    20481368:	3d802be4 	str	q4, [sp, #160]
    2048136c:	3d802fe5 	str	q5, [sp, #176]
    20481370:	3d8033e6 	str	q6, [sp, #192]
    20481374:	3d8037e7 	str	q7, [sp, #208]
    20481378:	910483e0 	add	x0, sp, #0x120
    2048137c:	f90023e0 	str	x0, [sp, #64]
    20481380:	910483e0 	add	x0, sp, #0x120
    20481384:	f90027e0 	str	x0, [sp, #72]
    20481388:	910383e0 	add	x0, sp, #0xe0
    2048138c:	f9002be0 	str	x0, [sp, #80]
    20481390:	128006e0 	mov	w0, #0xffffffc8            	// #-56
    20481394:	b9005be0 	str	w0, [sp, #88]
    20481398:	12800fe0 	mov	w0, #0xffffff80            	// #-128
    2048139c:	b9005fe0 	str	w0, [sp, #92]
    204813a0:	910043e0 	add	x0, sp, #0x10
    204813a4:	910103e1 	add	x1, sp, #0x40
    204813a8:	ad400420 	ldp	q0, q1, [x1]
    204813ac:	ad000400 	stp	q0, q1, [x0]
    204813b0:	910043e0 	add	x0, sp, #0x10
    204813b4:	aa0003e1 	mov	x1, x0
    204813b8:	f9401fe0 	ldr	x0, [sp, #56]
    204813bc:	94000014 	bl	2048140c <vprintf>
    204813c0:	52800000 	mov	w0, #0x0                   	// #0
    204813c4:	a8d27bfd 	ldp	x29, x30, [sp], #288
    204813c8:	d65f03c0 	ret

00000000204813cc <strlen>:
    204813cc:	d10083ff 	sub	sp, sp, #0x20
    204813d0:	f90007e0 	str	x0, [sp, #8]
    204813d4:	f9000fff 	str	xzr, [sp, #24]
    204813d8:	d503201f 	nop
    204813dc:	f9400fe0 	ldr	x0, [sp, #24]
    204813e0:	91000401 	add	x1, x0, #0x1
    204813e4:	f9000fe1 	str	x1, [sp, #24]
    204813e8:	f94007e1 	ldr	x1, [sp, #8]
    204813ec:	8b000020 	add	x0, x1, x0
    204813f0:	39400000 	ldrb	w0, [x0]
    204813f4:	7100001f 	cmp	w0, #0x0
    204813f8:	54ffff21 	b.ne	204813dc <strlen+0x10>  // b.any
    204813fc:	f9400fe0 	ldr	x0, [sp, #24]
    20481400:	d1000400 	sub	x0, x0, #0x1
    20481404:	910083ff 	add	sp, sp, #0x20
    20481408:	d65f03c0 	ret

000000002048140c <vprintf>:
    2048140c:	a9b97bfd 	stp	x29, x30, [sp, #-112]!
    20481410:	910003fd 	mov	x29, sp
    20481414:	f9000bf3 	str	x19, [sp, #16]
    20481418:	f90017e0 	str	x0, [sp, #40]
    2048141c:	aa0103f3 	mov	x19, x1
    20481420:	f94017e0 	ldr	x0, [sp, #40]
    20481424:	f9001fe0 	str	x0, [sp, #56]
    20481428:	14000167 	b	204819c4 <vprintf+0x5b8>
    2048142c:	f9401fe0 	ldr	x0, [sp, #56]
    20481430:	39400000 	ldrb	w0, [x0]
    20481434:	7100941f 	cmp	w0, #0x25
    20481438:	54000100 	b.eq	20481458 <vprintf+0x4c>  // b.none
    2048143c:	f9401fe0 	ldr	x0, [sp, #56]
    20481440:	39400000 	ldrb	w0, [x0]
    20481444:	9400017e 	bl	20481a3c <outbyte>
    20481448:	f9401fe0 	ldr	x0, [sp, #56]
    2048144c:	91000400 	add	x0, x0, #0x1
    20481450:	f9001fe0 	str	x0, [sp, #56]
    20481454:	1400015c 	b	204819c4 <vprintf+0x5b8>
    20481458:	b90067ff 	str	wzr, [sp, #100]
    2048145c:	b9006bff 	str	wzr, [sp, #104]
    20481460:	b9005bff 	str	wzr, [sp, #88]
    20481464:	b90057ff 	str	wzr, [sp, #84]
    20481468:	b90053ff 	str	wzr, [sp, #80]
    2048146c:	52800400 	mov	w0, #0x20                  	// #32
    20481470:	390133e0 	strb	w0, [sp, #76]
    20481474:	528fffe0 	mov	w0, #0x7fff                	// #32767
    20481478:	b9004be0 	str	w0, [sp, #72]
    2048147c:	b90047ff 	str	wzr, [sp, #68]
    20481480:	b90043ff 	str	wzr, [sp, #64]
    20481484:	f9401fe0 	ldr	x0, [sp, #56]
    20481488:	f100001f 	cmp	x0, #0x0
    2048148c:	54002ac0 	b.eq	204819e4 <vprintf+0x5d8>  // b.none
    20481490:	f9401fe0 	ldr	x0, [sp, #56]
    20481494:	91000400 	add	x0, x0, #0x1
    20481498:	f9001fe0 	str	x0, [sp, #56]
    2048149c:	f9401fe0 	ldr	x0, [sp, #56]
    204814a0:	39400000 	ldrb	w0, [x0]
    204814a4:	39018fe0 	strb	w0, [sp, #99]
    204814a8:	39418fe0 	ldrb	w0, [sp, #99]
    204814ac:	91000401 	add	x1, x0, #0x1
    204814b0:	90000000 	adrp	x0, 20481000 <outnum+0x134>
    204814b4:	91316000 	add	x0, x0, #0xc58
    204814b8:	8b000020 	add	x0, x1, x0
    204814bc:	39400000 	ldrb	w0, [x0]
    204814c0:	121e0000 	and	w0, w0, #0x4
    204814c4:	7100001f 	cmp	w0, #0x0
    204814c8:	54000380 	b.eq	20481538 <vprintf+0x12c>  // b.none
    204814cc:	b94067e0 	ldr	w0, [sp, #100]
    204814d0:	7100001f 	cmp	w0, #0x0
    204814d4:	540000a0 	b.eq	204814e8 <vprintf+0xdc>  // b.none
    204814d8:	9100e3e0 	add	x0, sp, #0x38
    204814dc:	97ffff5b 	bl	20481248 <getnum>
    204814e0:	b9004be0 	str	w0, [sp, #72]
    204814e4:	1400000e 	b	2048151c <vprintf+0x110>
    204814e8:	39418fe0 	ldrb	w0, [sp, #99]
    204814ec:	7100c01f 	cmp	w0, #0x30
    204814f0:	54000061 	b.ne	204814fc <vprintf+0xf0>  // b.any
    204814f4:	52800600 	mov	w0, #0x30                  	// #48
    204814f8:	390133e0 	strb	w0, [sp, #76]
    204814fc:	f9401fe0 	ldr	x0, [sp, #56]
    20481500:	f100001f 	cmp	x0, #0x0
    20481504:	54000080 	b.eq	20481514 <vprintf+0x108>  // b.none
    20481508:	9100e3e0 	add	x0, sp, #0x38
    2048150c:	97ffff4f 	bl	20481248 <getnum>
    20481510:	b90047e0 	str	w0, [sp, #68]
    20481514:	52800020 	mov	w0, #0x1                   	// #1
    20481518:	b90053e0 	str	w0, [sp, #80]
    2048151c:	f9401fe0 	ldr	x0, [sp, #56]
    20481520:	f100001f 	cmp	x0, #0x0
    20481524:	54fffb00 	b.eq	20481484 <vprintf+0x78>  // b.none
    20481528:	f9401fe0 	ldr	x0, [sp, #56]
    2048152c:	d1000400 	sub	x0, x0, #0x1
    20481530:	f9001fe0 	str	x0, [sp, #56]
    20481534:	17ffffd4 	b	20481484 <vprintf+0x78>
    20481538:	39418fe0 	ldrb	w0, [sp, #99]
    2048153c:	b9005fe0 	str	w0, [sp, #92]
    20481540:	b9805fe0 	ldrsw	x0, [sp, #92]
    20481544:	91000401 	add	x1, x0, #0x1
    20481548:	90000000 	adrp	x0, 20481000 <outnum+0x134>
    2048154c:	91316000 	add	x0, x0, #0xc58
    20481550:	8b000020 	add	x0, x1, x0
    20481554:	39400000 	ldrb	w0, [x0]
    20481558:	12000400 	and	w0, w0, #0x3
    2048155c:	7100041f 	cmp	w0, #0x1
    20481560:	54000081 	b.ne	20481570 <vprintf+0x164>  // b.any
    20481564:	b9405fe0 	ldr	w0, [sp, #92]
    20481568:	11008000 	add	w0, w0, #0x20
    2048156c:	14000002 	b	20481574 <vprintf+0x168>
    20481570:	b9405fe0 	ldr	w0, [sp, #92]
    20481574:	51009400 	sub	w0, w0, #0x25
    20481578:	71014c1f 	cmp	w0, #0x53
    2048157c:	540020c8 	b.hi	20481994 <vprintf+0x588>  // b.pmore
    20481580:	90000001 	adrp	x1, 20481000 <outnum+0x134>
    20481584:	912c1021 	add	x1, x1, #0xb04
    20481588:	b8605820 	ldr	w0, [x1, w0, uxtw #2]
    2048158c:	10000061 	adr	x1, 20481598 <vprintf+0x18c>
    20481590:	8b20c820 	add	x0, x1, w0, sxtw #2
    20481594:	d61f0000 	br	x0
    20481598:	528004a0 	mov	w0, #0x25                  	// #37
    2048159c:	94000128 	bl	20481a3c <outbyte>
    204815a0:	52800020 	mov	w0, #0x1                   	// #1
    204815a4:	b9006fe0 	str	w0, [sp, #108]
    204815a8:	140000fe 	b	204819a0 <vprintf+0x594>
    204815ac:	52800020 	mov	w0, #0x1                   	// #1
    204815b0:	b90057e0 	str	w0, [sp, #84]
    204815b4:	b9006fff 	str	wzr, [sp, #108]
    204815b8:	140000fa 	b	204819a0 <vprintf+0x594>
    204815bc:	52800020 	mov	w0, #0x1                   	// #1
    204815c0:	b90067e0 	str	w0, [sp, #100]
    204815c4:	b9006fff 	str	wzr, [sp, #108]
    204815c8:	140000f6 	b	204819a0 <vprintf+0x594>
    204815cc:	52800020 	mov	w0, #0x1                   	// #1
    204815d0:	b9006be0 	str	w0, [sp, #104]
    204815d4:	b9006fff 	str	wzr, [sp, #108]
    204815d8:	140000f2 	b	204819a0 <vprintf+0x594>
    204815dc:	52800020 	mov	w0, #0x1                   	// #1
    204815e0:	b9005be0 	str	w0, [sp, #88]
    204815e4:	b9406be0 	ldr	w0, [sp, #104]
    204815e8:	7100001f 	cmp	w0, #0x0
    204815ec:	54000360 	b.eq	20481658 <vprintf+0x24c>  // b.none
    204815f0:	b9401a61 	ldr	w1, [x19, #24]
    204815f4:	f9400260 	ldr	x0, [x19]
    204815f8:	7100003f 	cmp	w1, #0x0
    204815fc:	540000ab 	b.lt	20481610 <vprintf+0x204>  // b.tstop
    20481600:	91003c01 	add	x1, x0, #0xf
    20481604:	927df021 	and	x1, x1, #0xfffffffffffffff8
    20481608:	f9000261 	str	x1, [x19]
    2048160c:	1400000d 	b	20481640 <vprintf+0x234>
    20481610:	11002022 	add	w2, w1, #0x8
    20481614:	b9001a62 	str	w2, [x19, #24]
    20481618:	b9401a62 	ldr	w2, [x19, #24]
    2048161c:	7100005f 	cmp	w2, #0x0
    20481620:	540000ad 	b.le	20481634 <vprintf+0x228>
    20481624:	91003c01 	add	x1, x0, #0xf
    20481628:	927df021 	and	x1, x1, #0xfffffffffffffff8
    2048162c:	f9000261 	str	x1, [x19]
    20481630:	14000004 	b	20481640 <vprintf+0x234>
    20481634:	f9400662 	ldr	x2, [x19, #8]
    20481638:	93407c20 	sxtw	x0, w1
    2048163c:	8b000040 	add	x0, x2, x0
    20481640:	f9400000 	ldr	x0, [x0]
    20481644:	910103e1 	add	x1, sp, #0x40
    20481648:	aa0103e2 	mov	x2, x1
    2048164c:	52800141 	mov	w1, #0xa                   	// #10
    20481650:	97fffe8f 	bl	2048108c <outnum1>
    20481654:	1400001a 	b	204816bc <vprintf+0x2b0>
    20481658:	b9401a61 	ldr	w1, [x19, #24]
    2048165c:	f9400260 	ldr	x0, [x19]
    20481660:	7100003f 	cmp	w1, #0x0
    20481664:	540000ab 	b.lt	20481678 <vprintf+0x26c>  // b.tstop
    20481668:	91002c01 	add	x1, x0, #0xb
    2048166c:	927df021 	and	x1, x1, #0xfffffffffffffff8
    20481670:	f9000261 	str	x1, [x19]
    20481674:	1400000d 	b	204816a8 <vprintf+0x29c>
    20481678:	11002022 	add	w2, w1, #0x8
    2048167c:	b9001a62 	str	w2, [x19, #24]
    20481680:	b9401a62 	ldr	w2, [x19, #24]
    20481684:	7100005f 	cmp	w2, #0x0
    20481688:	540000ad 	b.le	2048169c <vprintf+0x290>
    2048168c:	91002c01 	add	x1, x0, #0xb
    20481690:	927df021 	and	x1, x1, #0xfffffffffffffff8
    20481694:	f9000261 	str	x1, [x19]
    20481698:	14000004 	b	204816a8 <vprintf+0x29c>
    2048169c:	f9400662 	ldr	x2, [x19, #8]
    204816a0:	93407c20 	sxtw	x0, w1
    204816a4:	8b000040 	add	x0, x2, x0
    204816a8:	b9400000 	ldr	w0, [x0]
    204816ac:	910103e1 	add	x1, sp, #0x40
    204816b0:	aa0103e2 	mov	x2, x1
    204816b4:	52800141 	mov	w1, #0xa                   	// #10
    204816b8:	97fffe05 	bl	20480ecc <outnum>
    204816bc:	52800020 	mov	w0, #0x1                   	// #1
    204816c0:	b9006fe0 	str	w0, [sp, #108]
    204816c4:	140000b7 	b	204819a0 <vprintf+0x594>
    204816c8:	52800020 	mov	w0, #0x1                   	// #1
    204816cc:	b9005be0 	str	w0, [sp, #88]
    204816d0:	b9401a61 	ldr	w1, [x19, #24]
    204816d4:	f9400260 	ldr	x0, [x19]
    204816d8:	7100003f 	cmp	w1, #0x0
    204816dc:	540000ab 	b.lt	204816f0 <vprintf+0x2e4>  // b.tstop
    204816e0:	91003c01 	add	x1, x0, #0xf
    204816e4:	927df021 	and	x1, x1, #0xfffffffffffffff8
    204816e8:	f9000261 	str	x1, [x19]
    204816ec:	1400000d 	b	20481720 <vprintf+0x314>
    204816f0:	11002022 	add	w2, w1, #0x8
    204816f4:	b9001a62 	str	w2, [x19, #24]
    204816f8:	b9401a62 	ldr	w2, [x19, #24]
    204816fc:	7100005f 	cmp	w2, #0x0
    20481700:	540000ad 	b.le	20481714 <vprintf+0x308>
    20481704:	91003c01 	add	x1, x0, #0xf
    20481708:	927df021 	and	x1, x1, #0xfffffffffffffff8
    2048170c:	f9000261 	str	x1, [x19]
    20481710:	14000004 	b	20481720 <vprintf+0x314>
    20481714:	f9400662 	ldr	x2, [x19, #8]
    20481718:	93407c20 	sxtw	x0, w1
    2048171c:	8b000040 	add	x0, x2, x0
    20481720:	f9400000 	ldr	x0, [x0]
    20481724:	910103e1 	add	x1, sp, #0x40
    20481728:	aa0103e2 	mov	x2, x1
    2048172c:	52800201 	mov	w1, #0x10                  	// #16
    20481730:	97fffe57 	bl	2048108c <outnum1>
    20481734:	52800020 	mov	w0, #0x1                   	// #1
    20481738:	b9006fe0 	str	w0, [sp, #108]
    2048173c:	14000099 	b	204819a0 <vprintf+0x594>
    20481740:	52800020 	mov	w0, #0x1                   	// #1
    20481744:	b9005be0 	str	w0, [sp, #88]
    20481748:	b9406be0 	ldr	w0, [sp, #104]
    2048174c:	7100001f 	cmp	w0, #0x0
    20481750:	54000360 	b.eq	204817bc <vprintf+0x3b0>  // b.none
    20481754:	b9401a61 	ldr	w1, [x19, #24]
    20481758:	f9400260 	ldr	x0, [x19]
    2048175c:	7100003f 	cmp	w1, #0x0
    20481760:	540000ab 	b.lt	20481774 <vprintf+0x368>  // b.tstop
    20481764:	91003c01 	add	x1, x0, #0xf
    20481768:	927df021 	and	x1, x1, #0xfffffffffffffff8
    2048176c:	f9000261 	str	x1, [x19]
    20481770:	1400000d 	b	204817a4 <vprintf+0x398>
    20481774:	11002022 	add	w2, w1, #0x8
    20481778:	b9001a62 	str	w2, [x19, #24]
    2048177c:	b9401a62 	ldr	w2, [x19, #24]
    20481780:	7100005f 	cmp	w2, #0x0
    20481784:	540000ad 	b.le	20481798 <vprintf+0x38c>
    20481788:	91003c01 	add	x1, x0, #0xf
    2048178c:	927df021 	and	x1, x1, #0xfffffffffffffff8
    20481790:	f9000261 	str	x1, [x19]
    20481794:	14000004 	b	204817a4 <vprintf+0x398>
    20481798:	f9400662 	ldr	x2, [x19, #8]
    2048179c:	93407c20 	sxtw	x0, w1
    204817a0:	8b000040 	add	x0, x2, x0
    204817a4:	f9400000 	ldr	x0, [x0]
    204817a8:	910103e1 	add	x1, sp, #0x40
    204817ac:	aa0103e2 	mov	x2, x1
    204817b0:	52800201 	mov	w1, #0x10                  	// #16
    204817b4:	97fffe36 	bl	2048108c <outnum1>
    204817b8:	1400001a 	b	20481820 <vprintf+0x414>
    204817bc:	b9401a61 	ldr	w1, [x19, #24]
    204817c0:	f9400260 	ldr	x0, [x19]
    204817c4:	7100003f 	cmp	w1, #0x0
    204817c8:	540000ab 	b.lt	204817dc <vprintf+0x3d0>  // b.tstop
    204817cc:	91002c01 	add	x1, x0, #0xb
    204817d0:	927df021 	and	x1, x1, #0xfffffffffffffff8
    204817d4:	f9000261 	str	x1, [x19]
    204817d8:	1400000d 	b	2048180c <vprintf+0x400>
    204817dc:	11002022 	add	w2, w1, #0x8
    204817e0:	b9001a62 	str	w2, [x19, #24]
    204817e4:	b9401a62 	ldr	w2, [x19, #24]
    204817e8:	7100005f 	cmp	w2, #0x0
    204817ec:	540000ad 	b.le	20481800 <vprintf+0x3f4>
    204817f0:	91002c01 	add	x1, x0, #0xb
    204817f4:	927df021 	and	x1, x1, #0xfffffffffffffff8
    204817f8:	f9000261 	str	x1, [x19]
    204817fc:	14000004 	b	2048180c <vprintf+0x400>
    20481800:	f9400662 	ldr	x2, [x19, #8]
    20481804:	93407c20 	sxtw	x0, w1
    20481808:	8b000040 	add	x0, x2, x0
    2048180c:	b9400000 	ldr	w0, [x0]
    20481810:	910103e1 	add	x1, sp, #0x40
    20481814:	aa0103e2 	mov	x2, x1
    20481818:	52800201 	mov	w1, #0x10                  	// #16
    2048181c:	97fffdac 	bl	20480ecc <outnum>
    20481820:	52800020 	mov	w0, #0x1                   	// #1
    20481824:	b9006fe0 	str	w0, [sp, #108]
    20481828:	1400005e 	b	204819a0 <vprintf+0x594>
    2048182c:	b9401a61 	ldr	w1, [x19, #24]
    20481830:	f9400260 	ldr	x0, [x19]
    20481834:	7100003f 	cmp	w1, #0x0
    20481838:	540000ab 	b.lt	2048184c <vprintf+0x440>  // b.tstop
    2048183c:	91003c01 	add	x1, x0, #0xf
    20481840:	927df021 	and	x1, x1, #0xfffffffffffffff8
    20481844:	f9000261 	str	x1, [x19]
    20481848:	1400000d 	b	2048187c <vprintf+0x470>
    2048184c:	11002022 	add	w2, w1, #0x8
    20481850:	b9001a62 	str	w2, [x19, #24]
    20481854:	b9401a62 	ldr	w2, [x19, #24]
    20481858:	7100005f 	cmp	w2, #0x0
    2048185c:	540000ad 	b.le	20481870 <vprintf+0x464>
    20481860:	91003c01 	add	x1, x0, #0xf
    20481864:	927df021 	and	x1, x1, #0xfffffffffffffff8
    20481868:	f9000261 	str	x1, [x19]
    2048186c:	14000004 	b	2048187c <vprintf+0x470>
    20481870:	f9400662 	ldr	x2, [x19, #8]
    20481874:	93407c20 	sxtw	x0, w1
    20481878:	8b000040 	add	x0, x2, x0
    2048187c:	f9400000 	ldr	x0, [x0]
    20481880:	910103e1 	add	x1, sp, #0x40
    20481884:	97fffd62 	bl	20480e0c <outs>
    20481888:	52800020 	mov	w0, #0x1                   	// #1
    2048188c:	b9006fe0 	str	w0, [sp, #108]
    20481890:	14000044 	b	204819a0 <vprintf+0x594>
    20481894:	b9401a61 	ldr	w1, [x19, #24]
    20481898:	f9400260 	ldr	x0, [x19]
    2048189c:	7100003f 	cmp	w1, #0x0
    204818a0:	540000ab 	b.lt	204818b4 <vprintf+0x4a8>  // b.tstop
    204818a4:	91002c01 	add	x1, x0, #0xb
    204818a8:	927df021 	and	x1, x1, #0xfffffffffffffff8
    204818ac:	f9000261 	str	x1, [x19]
    204818b0:	1400000d 	b	204818e4 <vprintf+0x4d8>
    204818b4:	11002022 	add	w2, w1, #0x8
    204818b8:	b9001a62 	str	w2, [x19, #24]
    204818bc:	b9401a62 	ldr	w2, [x19, #24]
    204818c0:	7100005f 	cmp	w2, #0x0
    204818c4:	540000ad 	b.le	204818d8 <vprintf+0x4cc>
    204818c8:	91002c01 	add	x1, x0, #0xb
    204818cc:	927df021 	and	x1, x1, #0xfffffffffffffff8
    204818d0:	f9000261 	str	x1, [x19]
    204818d4:	14000004 	b	204818e4 <vprintf+0x4d8>
    204818d8:	f9400662 	ldr	x2, [x19, #8]
    204818dc:	93407c20 	sxtw	x0, w1
    204818e0:	8b000040 	add	x0, x2, x0
    204818e4:	b9400000 	ldr	w0, [x0]
    204818e8:	12001c00 	and	w0, w0, #0xff
    204818ec:	94000054 	bl	20481a3c <outbyte>
    204818f0:	52800020 	mov	w0, #0x1                   	// #1
    204818f4:	b9006fe0 	str	w0, [sp, #108]
    204818f8:	1400002a 	b	204819a0 <vprintf+0x594>
    204818fc:	f9401fe0 	ldr	x0, [sp, #56]
    20481900:	39400000 	ldrb	w0, [x0]
    20481904:	7101c81f 	cmp	w0, #0x72
    20481908:	54000240 	b.eq	20481950 <vprintf+0x544>  // b.none
    2048190c:	7101c81f 	cmp	w0, #0x72
    20481910:	5400030c 	b.gt	20481970 <vprintf+0x564>
    20481914:	7101b81f 	cmp	w0, #0x6e
    20481918:	54000220 	b.eq	2048195c <vprintf+0x550>  // b.none
    2048191c:	7101b81f 	cmp	w0, #0x6e
    20481920:	5400028c 	b.gt	20481970 <vprintf+0x564>
    20481924:	7101841f 	cmp	w0, #0x61
    20481928:	54000080 	b.eq	20481938 <vprintf+0x52c>  // b.none
    2048192c:	7101a01f 	cmp	w0, #0x68
    20481930:	540000a0 	b.eq	20481944 <vprintf+0x538>  // b.none
    20481934:	1400000f 	b	20481970 <vprintf+0x564>
    20481938:	528000e0 	mov	w0, #0x7                   	// #7
    2048193c:	94000040 	bl	20481a3c <outbyte>
    20481940:	14000010 	b	20481980 <vprintf+0x574>
    20481944:	52800100 	mov	w0, #0x8                   	// #8
    20481948:	9400003d 	bl	20481a3c <outbyte>
    2048194c:	1400000d 	b	20481980 <vprintf+0x574>
    20481950:	528001a0 	mov	w0, #0xd                   	// #13
    20481954:	9400003a 	bl	20481a3c <outbyte>
    20481958:	1400000a 	b	20481980 <vprintf+0x574>
    2048195c:	528001a0 	mov	w0, #0xd                   	// #13
    20481960:	94000037 	bl	20481a3c <outbyte>
    20481964:	52800140 	mov	w0, #0xa                   	// #10
    20481968:	94000035 	bl	20481a3c <outbyte>
    2048196c:	14000005 	b	20481980 <vprintf+0x574>
    20481970:	f9401fe0 	ldr	x0, [sp, #56]
    20481974:	39400000 	ldrb	w0, [x0]
    20481978:	94000031 	bl	20481a3c <outbyte>
    2048197c:	d503201f 	nop
    20481980:	f9401fe0 	ldr	x0, [sp, #56]
    20481984:	91000400 	add	x0, x0, #0x1
    20481988:	f9001fe0 	str	x0, [sp, #56]
    2048198c:	b9006fff 	str	wzr, [sp, #108]
    20481990:	14000004 	b	204819a0 <vprintf+0x594>
    20481994:	52800020 	mov	w0, #0x1                   	// #1
    20481998:	b9006fe0 	str	w0, [sp, #108]
    2048199c:	d503201f 	nop
    204819a0:	b9406fe0 	ldr	w0, [sp, #108]
    204819a4:	7100041f 	cmp	w0, #0x1
    204819a8:	54ffd6e1 	b.ne	20481484 <vprintf+0x78>  // b.any
    204819ac:	f9401fe0 	ldr	x0, [sp, #56]
    204819b0:	f100001f 	cmp	x0, #0x0
    204819b4:	54000080 	b.eq	204819c4 <vprintf+0x5b8>  // b.none
    204819b8:	f9401fe0 	ldr	x0, [sp, #56]
    204819bc:	91000400 	add	x0, x0, #0x1
    204819c0:	f9001fe0 	str	x0, [sp, #56]
    204819c4:	f9401fe0 	ldr	x0, [sp, #56]
    204819c8:	f100001f 	cmp	x0, #0x0
    204819cc:	540000e0 	b.eq	204819e8 <vprintf+0x5dc>  // b.none
    204819d0:	f9401fe0 	ldr	x0, [sp, #56]
    204819d4:	39400000 	ldrb	w0, [x0]
    204819d8:	7100001f 	cmp	w0, #0x0
    204819dc:	54ffd281 	b.ne	2048142c <vprintf+0x20>  // b.any
    204819e0:	14000002 	b	204819e8 <vprintf+0x5dc>
    204819e4:	d503201f 	nop
    204819e8:	52800000 	mov	w0, #0x0                   	// #0
    204819ec:	f9400bf3 	ldr	x19, [sp, #16]
    204819f0:	a8c77bfd 	ldp	x29, x30, [sp], #112
    204819f4:	d65f03c0 	ret

00000000204819f8 <Mem_In32>:
    204819f8:	d10043ff 	sub	sp, sp, #0x10
    204819fc:	f90007e0 	str	x0, [sp, #8]
    20481a00:	f94007e0 	ldr	x0, [sp, #8]
    20481a04:	b9400000 	ldr	w0, [x0]
    20481a08:	910043ff 	add	sp, sp, #0x10
    20481a0c:	d65f03c0 	ret

0000000020481a10 <Mem_Out32>:
    20481a10:	d10083ff 	sub	sp, sp, #0x20
    20481a14:	f90007e0 	str	x0, [sp, #8]
    20481a18:	b90007e1 	str	w1, [sp, #4]
    20481a1c:	f94007e0 	ldr	x0, [sp, #8]
    20481a20:	f9000fe0 	str	x0, [sp, #24]
    20481a24:	f9400fe0 	ldr	x0, [sp, #24]
    20481a28:	b94007e1 	ldr	w1, [sp, #4]
    20481a2c:	b9000001 	str	w1, [x0]
    20481a30:	d503201f 	nop
    20481a34:	910083ff 	add	sp, sp, #0x20
    20481a38:	d65f03c0 	ret

0000000020481a3c <outbyte>:
    20481a3c:	a9be7bfd 	stp	x29, x30, [sp, #-32]!
    20481a40:	910003fd 	mov	x29, sp
    20481a44:	39007fe0 	strb	w0, [sp, #31]
    20481a48:	d503201f 	nop
    20481a4c:	d2800580 	mov	x0, #0x2c                  	// #44
    20481a50:	f2bfe000 	movk	x0, #0xff00, lsl #16
    20481a54:	97ffffe9 	bl	204819f8 <Mem_In32>
    20481a58:	121c0000 	and	w0, w0, #0x10
    20481a5c:	7100401f 	cmp	w0, #0x10
    20481a60:	54ffff60 	b.eq	20481a4c <outbyte+0x10>  // b.none
    20481a64:	39407fe0 	ldrb	w0, [sp, #31]
    20481a68:	2a0003e1 	mov	w1, w0
    20481a6c:	d2800600 	mov	x0, #0x30                  	// #48
    20481a70:	f2bfe000 	movk	x0, #0xff00, lsl #16
    20481a74:	97ffffe7 	bl	20481a10 <Mem_Out32>
    20481a78:	d503201f 	nop
    20481a7c:	a8c27bfd 	ldp	x29, x30, [sp], #32
    20481a80:	d65f03c0 	ret
