
bin/Core1.elf:     file format elf64-littleaarch64


Disassembly of section .mmu0:

0000000000004000 <MMUTableL0.0>:
    4000:	00005003 	udf	#20483
    4004:	00000000 	udf	#0
    4008:	00006003 	udf	#24579
    400c:	00000000 	udf	#0

Disassembly of section .mmu1:

0000000000005000 <MMUTableL1.0>:
    5000:	00006003 	udf	#24579
    5004:	00000000 	udf	#0
    5008:	00007003 	udf	#28675
    500c:	00000000 	udf	#0
    5010:	00008003 	udf	#32771
    5014:	00000000 	udf	#0
    5018:	00009003 	udf	#36867
    501c:	00000000 	udf	#0
    5020:	0000a003 	udf	#40963
    5024:	00000000 	udf	#0
    5028:	0000b003 	udf	#45059
    502c:	00000000 	udf	#0
    5030:	0000c003 	udf	#49155
    5034:	00000000 	udf	#0
    5038:	0000d003 	udf	#53251
    503c:	00000000 	udf	#0
    5040:	0000e003 	udf	#57347
    5044:	00000000 	udf	#0
    5048:	0000f003 	udf	#61443
    504c:	00000000 	udf	#0
    5050:	00010003 	.inst	0x00010003 ; undefined
    5054:	00000000 	udf	#0
    5058:	00011003 	.inst	0x00011003 ; undefined
    505c:	00000000 	udf	#0
    5060:	00012003 	.inst	0x00012003 ; undefined
    5064:	00000000 	udf	#0
    5068:	00013003 	.inst	0x00013003 ; undefined
    506c:	00000000 	udf	#0
    5070:	00014003 	.inst	0x00014003 ; undefined
    5074:	00000000 	udf	#0
    5078:	00015003 	.inst	0x00015003 ; undefined
    507c:	00000000 	udf	#0

Disassembly of section .mmu2:

0000000000006000 <MMUTableL2.0>:
    6000:	00000705 	udf	#1797
    6004:	00000000 	udf	#0
    6008:	00200705 	.inst	0x00200705 ; NYI
    600c:	00000000 	udf	#0
    6010:	00400705 	.inst	0x00400705 ; undefined
    6014:	00000000 	udf	#0
    6018:	00600705 	.inst	0x00600705 ; undefined
    601c:	00000000 	udf	#0
    6020:	00800705 	.inst	0x00800705 ; undefined
    6024:	00000000 	udf	#0
    6028:	00a00705 	.inst	0x00a00705 ; undefined
    602c:	00000000 	udf	#0
    6030:	00c00705 	.inst	0x00c00705 ; undefined
    6034:	00000000 	udf	#0
    6038:	00e00705 	.inst	0x00e00705 ; undefined
    603c:	00000000 	udf	#0
    6040:	01000705 	.inst	0x01000705 ; undefined
    6044:	00000000 	udf	#0
    6048:	01200705 	.inst	0x01200705 ; undefined
    604c:	00000000 	udf	#0
    6050:	01400705 	.inst	0x01400705 ; undefined
    6054:	00000000 	udf	#0
    6058:	01600705 	.inst	0x01600705 ; undefined
    605c:	00000000 	udf	#0
    6060:	01800705 	.inst	0x01800705 ; undefined
    6064:	00000000 	udf	#0
    6068:	01a00705 	.inst	0x01a00705 ; undefined
    606c:	00000000 	udf	#0
    6070:	01c00705 	.inst	0x01c00705 ; undefined
    6074:	00000000 	udf	#0
    6078:	01e00705 	.inst	0x01e00705 ; undefined
    607c:	00000000 	udf	#0
    6080:	02000705 	.inst	0x02000705 ; undefined
    6084:	00000000 	udf	#0
    6088:	02200705 	.inst	0x02200705 ; undefined
    608c:	00000000 	udf	#0
    6090:	02400705 	.inst	0x02400705 ; undefined
    6094:	00000000 	udf	#0
    6098:	02600705 	.inst	0x02600705 ; undefined
    609c:	00000000 	udf	#0
    60a0:	02800705 	.inst	0x02800705 ; undefined
    60a4:	00000000 	udf	#0
    60a8:	02a00705 	.inst	0x02a00705 ; undefined
    60ac:	00000000 	udf	#0
    60b0:	02c00705 	.inst	0x02c00705 ; undefined
    60b4:	00000000 	udf	#0
    60b8:	02e00705 	.inst	0x02e00705 ; undefined
    60bc:	00000000 	udf	#0
    60c0:	03000705 	.inst	0x03000705 ; undefined
    60c4:	00000000 	udf	#0
    60c8:	03200705 	.inst	0x03200705 ; undefined
    60cc:	00000000 	udf	#0
    60d0:	03400705 	.inst	0x03400705 ; undefined
    60d4:	00000000 	udf	#0
    60d8:	03600705 	.inst	0x03600705 ; undefined
    60dc:	00000000 	udf	#0
    60e0:	03800705 	.inst	0x03800705 ; undefined
    60e4:	00000000 	udf	#0
    60e8:	03a00705 	.inst	0x03a00705 ; undefined
    60ec:	00000000 	udf	#0
    60f0:	03c00705 	.inst	0x03c00705 ; undefined
    60f4:	00000000 	udf	#0
    60f8:	03e00705 	.inst	0x03e00705 ; undefined
    60fc:	00000000 	udf	#0
    6100:	04000705 	add	z5.b, p1/m, z5.b, z24.b
    6104:	00000000 	udf	#0
    6108:	04200705 	sub	z5.b, z24.b, z0.b
    610c:	00000000 	udf	#0
    6110:	04400705 	add	z5.h, p1/m, z5.h, z24.h
    6114:	00000000 	udf	#0
    6118:	04600705 	sub	z5.h, z24.h, z0.h
    611c:	00000000 	udf	#0
    6120:	04800705 	add	z5.s, p1/m, z5.s, z24.s
    6124:	00000000 	udf	#0
    6128:	04a00705 	sub	z5.s, z24.s, z0.s
    612c:	00000000 	udf	#0
    6130:	04c00705 	add	z5.d, p1/m, z5.d, z24.d
    6134:	00000000 	udf	#0
    6138:	04e00705 	sub	z5.d, z24.d, z0.d
    613c:	00000000 	udf	#0
    6140:	05000705 	orr	z5.b, z5.b, #0x11
    6144:	00000000 	udf	#0
    6148:	05200705 	ext	z5.b, z5.b, z24.b, #1
    614c:	00000000 	udf	#0
    6150:	05400705 	eor	z5.b, z5.b, #0x11
    6154:	00000000 	udf	#0
    6158:	05600705 	ext	z5.b, {z24.b-z25.b}, #1
    615c:	00000000 	udf	#0
    6160:	05800705 	and	z5.b, z5.b, #0x11
    6164:	00000000 	udf	#0
    6168:	05a00705 	zip2	z5.q, z24.q, z0.q
    616c:	00000000 	udf	#0
    6170:	05c00705 	dupm	z5.b, #0x11
    6174:	00000000 	udf	#0
    6178:	05e00705 	.inst	0x05e00705 ; undefined
    617c:	00000000 	udf	#0
    6180:	06000705 	.inst	0x06000705 ; undefined
    6184:	00000000 	udf	#0
    6188:	06200705 	.inst	0x06200705 ; undefined
    618c:	00000000 	udf	#0
    6190:	06400705 	.inst	0x06400705 ; undefined
    6194:	00000000 	udf	#0
    6198:	06600705 	.inst	0x06600705 ; undefined
    619c:	00000000 	udf	#0
    61a0:	06800705 	.inst	0x06800705 ; undefined
    61a4:	00000000 	udf	#0
    61a8:	06a00705 	.inst	0x06a00705 ; undefined
    61ac:	00000000 	udf	#0
    61b0:	06c00705 	.inst	0x06c00705 ; undefined
    61b4:	00000000 	udf	#0
    61b8:	06e00705 	.inst	0x06e00705 ; undefined
    61bc:	00000000 	udf	#0
    61c0:	07000705 	.inst	0x07000705 ; undefined
    61c4:	00000000 	udf	#0
    61c8:	07200705 	.inst	0x07200705 ; undefined
    61cc:	00000000 	udf	#0
    61d0:	07400705 	.inst	0x07400705 ; undefined
    61d4:	00000000 	udf	#0
    61d8:	07600705 	.inst	0x07600705 ; undefined
    61dc:	00000000 	udf	#0
    61e0:	07800705 	.inst	0x07800705 ; undefined
    61e4:	00000000 	udf	#0
    61e8:	07a00705 	.inst	0x07a00705 ; undefined
    61ec:	00000000 	udf	#0
    61f0:	07c00705 	.inst	0x07c00705 ; undefined
    61f4:	00000000 	udf	#0
    61f8:	07e00705 	.inst	0x07e00705 ; undefined
    61fc:	00000000 	udf	#0
    6200:	08000705 	stxrb	w0, w5, [x24]
    6204:	00000000 	udf	#0
    6208:	08200705 	.inst	0x08200705 ; undefined
    620c:	00000000 	udf	#0
    6210:	08400705 	ldxrb	w5, [x24]
    6214:	00000000 	udf	#0
    6218:	08600705 	.inst	0x08600705 ; undefined
    621c:	00000000 	udf	#0
    6220:	08800705 	stllrb	w5, [x24]
    6224:	00000000 	udf	#0
    6228:	08a00705 	.inst	0x08a00705 ; undefined
    622c:	00000000 	udf	#0
    6230:	08c00705 	ldlarb	w5, [x24]
    6234:	00000000 	udf	#0
    6238:	08e00705 	.inst	0x08e00705 ; undefined
    623c:	00000000 	udf	#0
    6240:	09000705 	.inst	0x09000705 ; undefined
    6244:	00000000 	udf	#0
    6248:	09200705 	.inst	0x09200705 ; undefined
    624c:	00000000 	udf	#0
    6250:	09400705 	.inst	0x09400705 ; undefined
    6254:	00000000 	udf	#0
    6258:	09600705 	.inst	0x09600705 ; undefined
    625c:	00000000 	udf	#0
    6260:	09800705 	.inst	0x09800705 ; undefined
    6264:	00000000 	udf	#0
    6268:	09a00705 	.inst	0x09a00705 ; undefined
    626c:	00000000 	udf	#0
    6270:	09c00705 	.inst	0x09c00705 ; undefined
    6274:	00000000 	udf	#0
    6278:	09e00705 	.inst	0x09e00705 ; undefined
    627c:	00000000 	udf	#0
    6280:	0a000705 	and	w5, w24, w0, lsl #1
    6284:	00000000 	udf	#0
    6288:	0a200705 	bic	w5, w24, w0, lsl #1
    628c:	00000000 	udf	#0
    6290:	0a400705 	and	w5, w24, w0, lsr #1
    6294:	00000000 	udf	#0
    6298:	0a600705 	bic	w5, w24, w0, lsr #1
    629c:	00000000 	udf	#0
    62a0:	0a800705 	and	w5, w24, w0, asr #1
    62a4:	00000000 	udf	#0
    62a8:	0aa00705 	bic	w5, w24, w0, asr #1
    62ac:	00000000 	udf	#0
    62b0:	0ac00705 	and	w5, w24, w0, ror #1
    62b4:	00000000 	udf	#0
    62b8:	0ae00705 	bic	w5, w24, w0, ror #1
    62bc:	00000000 	udf	#0
    62c0:	0b000705 	add	w5, w24, w0, lsl #1
    62c4:	00000000 	udf	#0
    62c8:	0b200705 	add	w5, w24, w0, uxtb #1
    62cc:	00000000 	udf	#0
    62d0:	0b400705 	add	w5, w24, w0, lsr #1
    62d4:	00000000 	udf	#0
    62d8:	0b600705 	.inst	0x0b600705 ; undefined
    62dc:	00000000 	udf	#0
    62e0:	0b800705 	add	w5, w24, w0, asr #1
    62e4:	00000000 	udf	#0
    62e8:	0ba00705 	.inst	0x0ba00705 ; undefined
    62ec:	00000000 	udf	#0
    62f0:	0bc00705 	.inst	0x0bc00705 ; undefined
    62f4:	00000000 	udf	#0
    62f8:	0be00705 	.inst	0x0be00705 ; undefined
    62fc:	00000000 	udf	#0
    6300:	0c000705 	st4	{v5.4h-v8.4h}, [x24]
    6304:	00000000 	udf	#0
    6308:	0c200705 	.inst	0x0c200705 ; undefined
    630c:	00000000 	udf	#0
    6310:	0c400705 	ld4	{v5.4h-v8.4h}, [x24]
    6314:	00000000 	udf	#0
    6318:	0c600705 	.inst	0x0c600705 ; undefined
    631c:	00000000 	udf	#0
    6320:	0c800705 	st4	{v5.4h-v8.4h}, [x24], x0
    6324:	00000000 	udf	#0
    6328:	0ca00705 	.inst	0x0ca00705 ; undefined
    632c:	00000000 	udf	#0
    6330:	0cc00705 	ld4	{v5.4h-v8.4h}, [x24], x0
    6334:	00000000 	udf	#0
    6338:	0ce00705 	.inst	0x0ce00705 ; undefined
    633c:	00000000 	udf	#0
    6340:	0d000705 	st1	{v5.b}[1], [x24]
    6344:	00000000 	udf	#0
    6348:	0d200705 	st2	{v5.b-v6.b}[1], [x24]
    634c:	00000000 	udf	#0
    6350:	0d400705 	ld1	{v5.b}[1], [x24]
    6354:	00000000 	udf	#0
    6358:	0d600705 	ld2	{v5.b-v6.b}[1], [x24]
    635c:	00000000 	udf	#0
    6360:	0d800705 	st1	{v5.b}[1], [x24], x0
    6364:	00000000 	udf	#0
    6368:	0da00705 	st2	{v5.b-v6.b}[1], [x24], x0
    636c:	00000000 	udf	#0
    6370:	0dc00705 	ld1	{v5.b}[1], [x24], x0
    6374:	00000000 	udf	#0
    6378:	0de00705 	ld2	{v5.b-v6.b}[1], [x24], x0
    637c:	00000000 	udf	#0
    6380:	0e000705 	.inst	0x0e000705 ; undefined
    6384:	00000000 	udf	#0
    6388:	0e200705 	shadd	v5.8b, v24.8b, v0.8b
    638c:	00000000 	udf	#0
    6390:	0e400705 	fmaxnm	v5.4h, v24.4h, v0.4h
    6394:	00000000 	udf	#0
    6398:	0e600705 	shadd	v5.4h, v24.4h, v0.4h
    639c:	00000000 	udf	#0
    63a0:	0e800705 	.inst	0x0e800705 ; undefined
    63a4:	00000000 	udf	#0
    63a8:	0ea00705 	shadd	v5.2s, v24.2s, v0.2s
    63ac:	00000000 	udf	#0
    63b0:	0ec00705 	fminnm	v5.4h, v24.4h, v0.4h
    63b4:	00000000 	udf	#0
    63b8:	0ee00705 	.inst	0x0ee00705 ; undefined
    63bc:	00000000 	udf	#0
    63c0:	0f000705 	movi	v5.2s, #0x18
    63c4:	00000000 	udf	#0
    63c8:	0f200705 	sshr	v5.2s, v24.2s, #32
    63cc:	00000000 	udf	#0
    63d0:	0f400705 	.inst	0x0f400705 ; undefined
    63d4:	00000000 	udf	#0
    63d8:	0f600705 	.inst	0x0f600705 ; undefined
    63dc:	00000000 	udf	#0
    63e0:	0f800705 	.inst	0x0f800705 ; undefined
    63e4:	00000000 	udf	#0
    63e8:	0fa00705 	.inst	0x0fa00705 ; undefined
    63ec:	00000000 	udf	#0
    63f0:	0fc00705 	.inst	0x0fc00705 ; undefined
    63f4:	00000000 	udf	#0
    63f8:	0fe00705 	.inst	0x0fe00705 ; undefined
    63fc:	00000000 	udf	#0
    6400:	10000705 	adr	x5, 64e0 <MMUTableL2.0+0x4e0>
    6404:	00000000 	udf	#0
    6408:	10200705 	adr	x5, 464e8 <__stack_end+0x2f758>
    640c:	00000000 	udf	#0
    6410:	10400705 	adr	x5, 864f0 <__stack_end+0x6f760>
    6414:	00000000 	udf	#0
    6418:	10600705 	adr	x5, c64f8 <__stack_end+0xaf768>
    641c:	00000000 	udf	#0
    6420:	10800705 	adr	x5, fffffffffff06500 <DEVICE+0xff9ffffffff060f7>
    6424:	00000000 	udf	#0
    6428:	10a00705 	adr	x5, fffffffffff46508 <DEVICE+0xff9ffffffff460ff>
    642c:	00000000 	udf	#0
    6430:	10c00705 	adr	x5, fffffffffff86510 <DEVICE+0xff9ffffffff86107>
    6434:	00000000 	udf	#0
    6438:	10e00705 	adr	x5, fffffffffffc6518 <DEVICE+0xff9ffffffffc610f>
    643c:	00000000 	udf	#0
    6440:	11000705 	add	w5, w24, #0x1
    6444:	00000000 	udf	#0
    6448:	11200705 	add	w5, w24, #0x801
    644c:	00000000 	udf	#0
    6450:	11400705 	add	w5, w24, #0x1, lsl #12
    6454:	00000000 	udf	#0
    6458:	11600705 	add	w5, w24, #0x801, lsl #12
    645c:	00000000 	udf	#0
    6460:	11800705 	.inst	0x11800705 ; undefined
    6464:	00000000 	udf	#0
    6468:	11a00705 	.inst	0x11a00705 ; undefined
    646c:	00000000 	udf	#0
    6470:	11c00705 	smax	w5, w24, #1
    6474:	00000000 	udf	#0
    6478:	11e00705 	.inst	0x11e00705 ; undefined
    647c:	00000000 	udf	#0
    6480:	12000705 	and	w5, w24, #0x3
    6484:	00000000 	udf	#0
    6488:	12200705 	and	w5, w24, #0x3
    648c:	00000000 	udf	#0
    6490:	12400705 	.inst	0x12400705 ; undefined
    6494:	00000000 	udf	#0
    6498:	12600705 	.inst	0x12600705 ; undefined
    649c:	00000000 	udf	#0
    64a0:	12800705 	mov	w5, #0xffffffc7            	// #-57
    64a4:	00000000 	udf	#0
    64a8:	12a00705 	mov	w5, #0xffc7ffff            	// #-3670017
    64ac:	00000000 	udf	#0
    64b0:	12c00705 	.inst	0x12c00705 ; undefined
    64b4:	00000000 	udf	#0
    64b8:	12e00705 	.inst	0x12e00705 ; undefined
    64bc:	00000000 	udf	#0
    64c0:	13000705 	sbfx	w5, w24, #0, #2
    64c4:	00000000 	udf	#0
    64c8:	13200705 	.inst	0x13200705 ; undefined
    64cc:	00000000 	udf	#0
    64d0:	13400705 	.inst	0x13400705 ; undefined
    64d4:	00000000 	udf	#0
    64d8:	13600705 	.inst	0x13600705 ; undefined
    64dc:	00000000 	udf	#0
    64e0:	13800705 	extr	w5, w24, w0, #1
    64e4:	00000000 	udf	#0
    64e8:	13a00705 	.inst	0x13a00705 ; undefined
    64ec:	00000000 	udf	#0
    64f0:	13c00705 	.inst	0x13c00705 ; undefined
    64f4:	00000000 	udf	#0
    64f8:	13e00705 	.inst	0x13e00705 ; undefined
    64fc:	00000000 	udf	#0
    6500:	14000705 	b	8114 <MMUTableL2.2+0x1014>
    6504:	00000000 	udf	#0
    6508:	14200705 	b	80811c <__buffer_end+0x50811c>
    650c:	00000000 	udf	#0
    6510:	14400705 	b	1008124 <__buffer_end+0xd08124>
    6514:	00000000 	udf	#0
    6518:	14600705 	b	180812c <__buffer_end+0x150812c>
    651c:	00000000 	udf	#0
    6520:	14800705 	b	2008134 <__buffer_end+0x1d08134>
    6524:	00000000 	udf	#0
    6528:	14a00705 	b	280813c <__buffer_end+0x250813c>
    652c:	00000000 	udf	#0
    6530:	14c00705 	b	3008144 <__buffer_end+0x2d08144>
    6534:	00000000 	udf	#0
    6538:	14e00705 	b	380814c <__buffer_end+0x350814c>
    653c:	00000000 	udf	#0
    6540:	15000705 	b	4008154 <__buffer_end+0x3d08154>
    6544:	00000000 	udf	#0
    6548:	15200705 	b	480815c <__buffer_end+0x450815c>
    654c:	00000000 	udf	#0
    6550:	15400705 	b	5008164 <__buffer_end+0x4d08164>
    6554:	00000000 	udf	#0
    6558:	15600705 	b	580816c <__buffer_end+0x550816c>
    655c:	00000000 	udf	#0
    6560:	15800705 	b	6008174 <__buffer_end+0x5d08174>
    6564:	00000000 	udf	#0
    6568:	15a00705 	b	680817c <__buffer_end+0x650817c>
    656c:	00000000 	udf	#0
    6570:	15c00705 	b	7008184 <__buffer_end+0x6d08184>
    6574:	00000000 	udf	#0
    6578:	15e00705 	b	780818c <__buffer_end+0x750818c>
    657c:	00000000 	udf	#0
    6580:	16000705 	b	fffffffff8008194 <DEVICE+0xff9ffffff8007d8b>
    6584:	00000000 	udf	#0
    6588:	16200705 	b	fffffffff880819c <DEVICE+0xff9ffffff8807d93>
    658c:	00000000 	udf	#0
    6590:	16400705 	b	fffffffff90081a4 <DEVICE+0xff9ffffff9007d9b>
    6594:	00000000 	udf	#0
    6598:	16600705 	b	fffffffff98081ac <DEVICE+0xff9ffffff9807da3>
    659c:	00000000 	udf	#0
    65a0:	16800705 	b	fffffffffa0081b4 <DEVICE+0xff9ffffffa007dab>
    65a4:	00000000 	udf	#0
    65a8:	16a00705 	b	fffffffffa8081bc <DEVICE+0xff9ffffffa807db3>
    65ac:	00000000 	udf	#0
    65b0:	16c00705 	b	fffffffffb0081c4 <DEVICE+0xff9ffffffb007dbb>
    65b4:	00000000 	udf	#0
    65b8:	16e00705 	b	fffffffffb8081cc <DEVICE+0xff9ffffffb807dc3>
    65bc:	00000000 	udf	#0
    65c0:	17000705 	b	fffffffffc0081d4 <DEVICE+0xff9ffffffc007dcb>
    65c4:	00000000 	udf	#0
    65c8:	17200705 	b	fffffffffc8081dc <DEVICE+0xff9ffffffc807dd3>
    65cc:	00000000 	udf	#0
    65d0:	17400705 	b	fffffffffd0081e4 <DEVICE+0xff9ffffffd007ddb>
    65d4:	00000000 	udf	#0
    65d8:	17600705 	b	fffffffffd8081ec <DEVICE+0xff9ffffffd807de3>
    65dc:	00000000 	udf	#0
    65e0:	17800705 	b	fffffffffe0081f4 <DEVICE+0xff9ffffffe007deb>
    65e4:	00000000 	udf	#0
    65e8:	17a00705 	b	fffffffffe8081fc <DEVICE+0xff9ffffffe807df3>
    65ec:	00000000 	udf	#0
    65f0:	17c00705 	b	ffffffffff008204 <DEVICE+0xff9fffffff007dfb>
    65f4:	00000000 	udf	#0
    65f8:	17e00705 	b	ffffffffff80820c <DEVICE+0xff9fffffff807e03>
    65fc:	00000000 	udf	#0
    6600:	18000705 	ldr	w5, 66e0 <MMUTableL2.0+0x6e0>
    6604:	00000000 	udf	#0
    6608:	18200705 	ldr	w5, 466e8 <__stack_end+0x2f958>
    660c:	00000000 	udf	#0
    6610:	18400705 	ldr	w5, 866f0 <__stack_end+0x6f960>
    6614:	00000000 	udf	#0
    6618:	18600705 	ldr	w5, c66f8 <__stack_end+0xaf968>
    661c:	00000000 	udf	#0
    6620:	18800705 	ldr	w5, fffffffffff06700 <DEVICE+0xff9ffffffff062f7>
    6624:	00000000 	udf	#0
    6628:	18a00705 	ldr	w5, fffffffffff46708 <DEVICE+0xff9ffffffff462ff>
    662c:	00000000 	udf	#0
    6630:	18c00705 	ldr	w5, fffffffffff86710 <DEVICE+0xff9ffffffff86307>
    6634:	00000000 	udf	#0
    6638:	18e00705 	ldr	w5, fffffffffffc6718 <DEVICE+0xff9ffffffffc630f>
    663c:	00000000 	udf	#0
    6640:	19000705 	cpyfp	[x5]!, [x0]!, x24!
    6644:	00000000 	udf	#0
    6648:	19200705 	.inst	0x19200705 ; undefined
    664c:	00000000 	udf	#0
    6650:	19400705 	cpyfm	[x5]!, [x0]!, x24!
    6654:	00000000 	udf	#0
    6658:	19600705 	.inst	0x19600705 ; undefined
    665c:	00000000 	udf	#0
    6660:	19800705 	cpyfe	[x5]!, [x0]!, x24!
    6664:	00000000 	udf	#0
    6668:	19a00705 	.inst	0x19a00705 ; undefined
    666c:	00000000 	udf	#0
    6670:	19c00705 	setp	[x5]!, x24!, x0
    6674:	00000000 	udf	#0
    6678:	19e00705 	.inst	0x19e00705 ; undefined
    667c:	00000000 	udf	#0
    6680:	1a000705 	.inst	0x1a000705 ; undefined
    6684:	00000000 	udf	#0
    6688:	1a200705 	.inst	0x1a200705 ; undefined
    668c:	00000000 	udf	#0
    6690:	1a400705 	.inst	0x1a400705 ; undefined
    6694:	00000000 	udf	#0
    6698:	1a600705 	.inst	0x1a600705 ; undefined
    669c:	00000000 	udf	#0
    66a0:	1a800705 	csinc	w5, w24, w0, eq	// eq = none
    66a4:	00000000 	udf	#0
    66a8:	1aa00705 	.inst	0x1aa00705 ; undefined
    66ac:	00000000 	udf	#0
    66b0:	1ac00705 	.inst	0x1ac00705 ; undefined
    66b4:	00000000 	udf	#0
    66b8:	1ae00705 	.inst	0x1ae00705 ; undefined
    66bc:	00000000 	udf	#0
    66c0:	1b000705 	madd	w5, w24, w0, w1
    66c4:	00000000 	udf	#0
    66c8:	1b200705 	.inst	0x1b200705 ; undefined
    66cc:	00000000 	udf	#0
    66d0:	1b400705 	.inst	0x1b400705 ; undefined
    66d4:	00000000 	udf	#0
    66d8:	1b600705 	.inst	0x1b600705 ; undefined
    66dc:	00000000 	udf	#0
    66e0:	1b800705 	.inst	0x1b800705 ; undefined
    66e4:	00000000 	udf	#0
    66e8:	1ba00705 	.inst	0x1ba00705 ; undefined
    66ec:	00000000 	udf	#0
    66f0:	1bc00705 	.inst	0x1bc00705 ; undefined
    66f4:	00000000 	udf	#0
    66f8:	1be00705 	.inst	0x1be00705 ; undefined
    66fc:	00000000 	udf	#0
    6700:	1c000705 	ldr	s5, 67e0 <MMUTableL2.0+0x7e0>
    6704:	00000000 	udf	#0
    6708:	1c200705 	ldr	s5, 467e8 <__stack_end+0x2fa58>
    670c:	00000000 	udf	#0
    6710:	1c400705 	ldr	s5, 867f0 <__stack_end+0x6fa60>
    6714:	00000000 	udf	#0
    6718:	1c600705 	ldr	s5, c67f8 <__stack_end+0xafa68>
    671c:	00000000 	udf	#0
    6720:	1c800705 	ldr	s5, fffffffffff06800 <DEVICE+0xff9ffffffff063f7>
    6724:	00000000 	udf	#0
    6728:	1ca00705 	ldr	s5, fffffffffff46808 <DEVICE+0xff9ffffffff463ff>
    672c:	00000000 	udf	#0
    6730:	1cc00705 	ldr	s5, fffffffffff86810 <DEVICE+0xff9ffffffff86407>
    6734:	00000000 	udf	#0
    6738:	1ce00705 	ldr	s5, fffffffffffc6818 <DEVICE+0xff9ffffffffc640f>
    673c:	00000000 	udf	#0
    6740:	1d000705 	cpyp	[x5]!, [x0]!, x24!
    6744:	00000000 	udf	#0
    6748:	1d200705 	.inst	0x1d200705 ; undefined
    674c:	00000000 	udf	#0
    6750:	1d400705 	cpym	[x5]!, [x0]!, x24!
    6754:	00000000 	udf	#0
    6758:	1d600705 	.inst	0x1d600705 ; undefined
    675c:	00000000 	udf	#0
    6760:	1d800705 	cpye	[x5]!, [x0]!, x24!
    6764:	00000000 	udf	#0
    6768:	1da00705 	.inst	0x1da00705 ; undefined
    676c:	00000000 	udf	#0
    6770:	1dc00705 	setgp	[x5]!, x24!, x0
    6774:	00000000 	udf	#0
    6778:	1de00705 	.inst	0x1de00705 ; undefined
    677c:	00000000 	udf	#0
    6780:	1e000705 	.inst	0x1e000705 ; undefined
    6784:	00000000 	udf	#0
    6788:	1e200705 	fccmp	s24, s0, #0x5, eq	// eq = none
    678c:	00000000 	udf	#0
    6790:	1e400705 	.inst	0x1e400705 ; undefined
    6794:	00000000 	udf	#0
    6798:	1e600705 	fccmp	d24, d0, #0x5, eq	// eq = none
    679c:	00000000 	udf	#0
    67a0:	1e800705 	.inst	0x1e800705 ; undefined
    67a4:	00000000 	udf	#0
    67a8:	1ea00705 	.inst	0x1ea00705 ; undefined
    67ac:	00000000 	udf	#0
    67b0:	1ec00705 	.inst	0x1ec00705 ; undefined
    67b4:	00000000 	udf	#0
    67b8:	1ee00705 	fccmp	h24, h0, #0x5, eq	// eq = none
    67bc:	00000000 	udf	#0
    67c0:	1f000705 	fmadd	s5, s24, s0, s1
    67c4:	00000000 	udf	#0
    67c8:	1f200705 	fnmadd	s5, s24, s0, s1
    67cc:	00000000 	udf	#0
    67d0:	1f400705 	fmadd	d5, d24, d0, d1
    67d4:	00000000 	udf	#0
    67d8:	1f600705 	fnmadd	d5, d24, d0, d1
    67dc:	00000000 	udf	#0
    67e0:	1f800705 	.inst	0x1f800705 ; undefined
    67e4:	00000000 	udf	#0
    67e8:	1fa00705 	.inst	0x1fa00705 ; undefined
    67ec:	00000000 	udf	#0
    67f0:	1fc00705 	fmadd	h5, h24, h0, h1
    67f4:	00000000 	udf	#0
    67f8:	1fe00705 	fnmadd	h5, h24, h0, h1
    67fc:	00000000 	udf	#0
    6800:	20000705 	.inst	0x20000705 ; undefined
    6804:	00000000 	udf	#0
    6808:	20200705 	.inst	0x20200705 ; undefined
    680c:	00000000 	udf	#0
    6810:	20400705 	.inst	0x20400705 ; undefined
    6814:	00000000 	udf	#0
    6818:	20600705 	.inst	0x20600705 ; undefined
    681c:	00000000 	udf	#0
    6820:	20800705 	.inst	0x20800705 ; undefined
    6824:	00000000 	udf	#0
    6828:	20a00705 	.inst	0x20a00705 ; undefined
    682c:	00000000 	udf	#0
    6830:	20c00705 	.inst	0x20c00705 ; undefined
    6834:	00000000 	udf	#0
    6838:	20e00705 	.inst	0x20e00705 ; undefined
    683c:	00000000 	udf	#0
    6840:	21000705 	.inst	0x21000705 ; undefined
    6844:	00000000 	udf	#0
    6848:	21200705 	.inst	0x21200705 ; undefined
    684c:	00000000 	udf	#0
    6850:	21400705 	.inst	0x21400705 ; undefined
    6854:	00000000 	udf	#0
    6858:	21600705 	.inst	0x21600705 ; undefined
    685c:	00000000 	udf	#0
    6860:	21800705 	.inst	0x21800705 ; undefined
    6864:	00000000 	udf	#0
    6868:	21a00705 	.inst	0x21a00705 ; undefined
    686c:	00000000 	udf	#0
    6870:	21c00705 	.inst	0x21c00705 ; undefined
    6874:	00000000 	udf	#0
    6878:	21e00705 	.inst	0x21e00705 ; undefined
    687c:	00000000 	udf	#0
    6880:	22000705 	.inst	0x22000705 ; undefined
    6884:	00000000 	udf	#0
    6888:	22200705 	.inst	0x22200705 ; undefined
    688c:	00000000 	udf	#0
    6890:	22400705 	.inst	0x22400705 ; undefined
    6894:	00000000 	udf	#0
    6898:	22600705 	.inst	0x22600705 ; undefined
    689c:	00000000 	udf	#0
    68a0:	22800705 	.inst	0x22800705 ; undefined
    68a4:	00000000 	udf	#0
    68a8:	22a00705 	.inst	0x22a00705 ; undefined
    68ac:	00000000 	udf	#0
    68b0:	22c00705 	.inst	0x22c00705 ; undefined
    68b4:	00000000 	udf	#0
    68b8:	22e00705 	.inst	0x22e00705 ; undefined
    68bc:	00000000 	udf	#0
    68c0:	23000705 	.inst	0x23000705 ; undefined
    68c4:	00000000 	udf	#0
    68c8:	23200705 	.inst	0x23200705 ; undefined
    68cc:	00000000 	udf	#0
    68d0:	23400705 	.inst	0x23400705 ; undefined
    68d4:	00000000 	udf	#0
    68d8:	23600705 	.inst	0x23600705 ; undefined
    68dc:	00000000 	udf	#0
    68e0:	23800705 	.inst	0x23800705 ; undefined
    68e4:	00000000 	udf	#0
    68e8:	23a00705 	.inst	0x23a00705 ; undefined
    68ec:	00000000 	udf	#0
    68f0:	23c00705 	.inst	0x23c00705 ; undefined
    68f4:	00000000 	udf	#0
    68f8:	23e00705 	.inst	0x23e00705 ; undefined
    68fc:	00000000 	udf	#0
    6900:	24000705 	cmphs	p5.b, p1/z, z24.b, z0.b
    6904:	00000000 	udf	#0
    6908:	24200705 	cmphs	p5.b, p1/z, z24.b, #0
    690c:	00000000 	udf	#0
    6910:	24400705 	cmphs	p5.h, p1/z, z24.h, z0.h
    6914:	00000000 	udf	#0
    6918:	24600705 	cmphs	p5.h, p1/z, z24.h, #0
    691c:	00000000 	udf	#0
    6920:	24800705 	cmphs	p5.s, p1/z, z24.s, z0.s
    6924:	00000000 	udf	#0
    6928:	24a00705 	cmphs	p5.s, p1/z, z24.s, #0
    692c:	00000000 	udf	#0
    6930:	24c00705 	cmphs	p5.d, p1/z, z24.d, z0.d
    6934:	00000000 	udf	#0
    6938:	24e00705 	cmphs	p5.d, p1/z, z24.d, #0
    693c:	00000000 	udf	#0
    6940:	25000705 	cmpge	p5.b, p1/z, z24.b, #0
    6944:	00000000 	udf	#0
    6948:	25200705 	whilelt	p5.b, w24, w0
    694c:	00000000 	udf	#0
    6950:	25400705 	cmpge	p5.h, p1/z, z24.h, #0
    6954:	00000000 	udf	#0
    6958:	25600705 	whilelt	p5.h, w24, w0
    695c:	00000000 	udf	#0
    6960:	25800705 	cmpge	p5.s, p1/z, z24.s, #0
    6964:	00000000 	udf	#0
    6968:	25a00705 	whilelt	p5.s, w24, w0
    696c:	00000000 	udf	#0
    6970:	25c00705 	cmpge	p5.d, p1/z, z24.d, #0
    6974:	00000000 	udf	#0
    6978:	25e00705 	whilelt	p5.d, w24, w0
    697c:	00000000 	udf	#0
    6980:	26000705 	.inst	0x26000705 ; undefined
    6984:	00000000 	udf	#0
    6988:	26200705 	.inst	0x26200705 ; undefined
    698c:	00000000 	udf	#0
    6990:	26400705 	.inst	0x26400705 ; undefined
    6994:	00000000 	udf	#0
    6998:	26600705 	.inst	0x26600705 ; undefined
    699c:	00000000 	udf	#0
    69a0:	26800705 	.inst	0x26800705 ; undefined
    69a4:	00000000 	udf	#0
    69a8:	26a00705 	.inst	0x26a00705 ; undefined
    69ac:	00000000 	udf	#0
    69b0:	26c00705 	.inst	0x26c00705 ; undefined
    69b4:	00000000 	udf	#0
    69b8:	26e00705 	.inst	0x26e00705 ; undefined
    69bc:	00000000 	udf	#0
    69c0:	27000705 	.inst	0x27000705 ; undefined
    69c4:	00000000 	udf	#0
    69c8:	27200705 	.inst	0x27200705 ; undefined
    69cc:	00000000 	udf	#0
    69d0:	27400705 	.inst	0x27400705 ; undefined
    69d4:	00000000 	udf	#0
    69d8:	27600705 	.inst	0x27600705 ; undefined
    69dc:	00000000 	udf	#0
    69e0:	27800705 	.inst	0x27800705 ; undefined
    69e4:	00000000 	udf	#0
    69e8:	27a00705 	.inst	0x27a00705 ; undefined
    69ec:	00000000 	udf	#0
    69f0:	27c00705 	.inst	0x27c00705 ; undefined
    69f4:	00000000 	udf	#0
    69f8:	27e00705 	.inst	0x27e00705 ; undefined
    69fc:	00000000 	udf	#0
    6a00:	28000705 	stnp	w5, w1, [x24]
    6a04:	00000000 	udf	#0
    6a08:	28200705 	stnp	w5, w1, [x24, #-256]
    6a0c:	00000000 	udf	#0
    6a10:	28400705 	ldnp	w5, w1, [x24]
    6a14:	00000000 	udf	#0
    6a18:	28600705 	ldnp	w5, w1, [x24, #-256]
    6a1c:	00000000 	udf	#0
    6a20:	28800705 	stp	w5, w1, [x24], #0
    6a24:	00000000 	udf	#0
    6a28:	28a00705 	stp	w5, w1, [x24], #-256
    6a2c:	00000000 	udf	#0
    6a30:	28c00705 	ldp	w5, w1, [x24], #0
    6a34:	00000000 	udf	#0
    6a38:	28e00705 	ldp	w5, w1, [x24], #-256
    6a3c:	00000000 	udf	#0
    6a40:	29000705 	stp	w5, w1, [x24]
    6a44:	00000000 	udf	#0
    6a48:	29200705 	stp	w5, w1, [x24, #-256]
    6a4c:	00000000 	udf	#0
    6a50:	29400705 	ldp	w5, w1, [x24]
    6a54:	00000000 	udf	#0
    6a58:	29600705 	ldp	w5, w1, [x24, #-256]
    6a5c:	00000000 	udf	#0
    6a60:	29800705 	stp	w5, w1, [x24, #0]!
    6a64:	00000000 	udf	#0
    6a68:	29a00705 	stp	w5, w1, [x24, #-256]!
    6a6c:	00000000 	udf	#0
    6a70:	29c00705 	ldp	w5, w1, [x24, #0]!
    6a74:	00000000 	udf	#0
    6a78:	29e00705 	ldp	w5, w1, [x24, #-256]!
    6a7c:	00000000 	udf	#0
    6a80:	2a000705 	orr	w5, w24, w0, lsl #1
    6a84:	00000000 	udf	#0
    6a88:	2a200705 	orn	w5, w24, w0, lsl #1
    6a8c:	00000000 	udf	#0
    6a90:	2a400705 	orr	w5, w24, w0, lsr #1
    6a94:	00000000 	udf	#0
    6a98:	2a600705 	orn	w5, w24, w0, lsr #1
    6a9c:	00000000 	udf	#0
    6aa0:	2a800705 	orr	w5, w24, w0, asr #1
    6aa4:	00000000 	udf	#0
    6aa8:	2aa00705 	orn	w5, w24, w0, asr #1
    6aac:	00000000 	udf	#0
    6ab0:	2ac00705 	orr	w5, w24, w0, ror #1
    6ab4:	00000000 	udf	#0
    6ab8:	2ae00705 	orn	w5, w24, w0, ror #1
    6abc:	00000000 	udf	#0
    6ac0:	2b000705 	adds	w5, w24, w0, lsl #1
    6ac4:	00000000 	udf	#0
    6ac8:	2b200705 	adds	w5, w24, w0, uxtb #1
    6acc:	00000000 	udf	#0
    6ad0:	2b400705 	adds	w5, w24, w0, lsr #1
    6ad4:	00000000 	udf	#0
    6ad8:	2b600705 	.inst	0x2b600705 ; undefined
    6adc:	00000000 	udf	#0
    6ae0:	2b800705 	adds	w5, w24, w0, asr #1
    6ae4:	00000000 	udf	#0
    6ae8:	2ba00705 	.inst	0x2ba00705 ; undefined
    6aec:	00000000 	udf	#0
    6af0:	2bc00705 	.inst	0x2bc00705 ; undefined
    6af4:	00000000 	udf	#0
    6af8:	2be00705 	.inst	0x2be00705 ; undefined
    6afc:	00000000 	udf	#0
    6b00:	2c000705 	stnp	s5, s1, [x24]
    6b04:	00000000 	udf	#0
    6b08:	2c200705 	stnp	s5, s1, [x24, #-256]
    6b0c:	00000000 	udf	#0
    6b10:	2c400705 	ldnp	s5, s1, [x24]
    6b14:	00000000 	udf	#0
    6b18:	2c600705 	ldnp	s5, s1, [x24, #-256]
    6b1c:	00000000 	udf	#0
    6b20:	2c800705 	stp	s5, s1, [x24], #0
    6b24:	00000000 	udf	#0
    6b28:	2ca00705 	stp	s5, s1, [x24], #-256
    6b2c:	00000000 	udf	#0
    6b30:	2cc00705 	ldp	s5, s1, [x24], #0
    6b34:	00000000 	udf	#0
    6b38:	2ce00705 	ldp	s5, s1, [x24], #-256
    6b3c:	00000000 	udf	#0
    6b40:	2d000705 	stp	s5, s1, [x24]
    6b44:	00000000 	udf	#0
    6b48:	2d200705 	stp	s5, s1, [x24, #-256]
    6b4c:	00000000 	udf	#0
    6b50:	2d400705 	ldp	s5, s1, [x24]
    6b54:	00000000 	udf	#0
    6b58:	2d600705 	ldp	s5, s1, [x24, #-256]
    6b5c:	00000000 	udf	#0
    6b60:	2d800705 	stp	s5, s1, [x24, #0]!
    6b64:	00000000 	udf	#0
    6b68:	2da00705 	stp	s5, s1, [x24, #-256]!
    6b6c:	00000000 	udf	#0
    6b70:	2dc00705 	ldp	s5, s1, [x24, #0]!
    6b74:	00000000 	udf	#0
    6b78:	2de00705 	ldp	s5, s1, [x24, #-256]!
    6b7c:	00000000 	udf	#0
    6b80:	2e000705 	.inst	0x2e000705 ; undefined
    6b84:	00000000 	udf	#0
    6b88:	2e200705 	uhadd	v5.8b, v24.8b, v0.8b
    6b8c:	00000000 	udf	#0
    6b90:	2e400705 	fmaxnmp	v5.4h, v24.4h, v0.4h
    6b94:	00000000 	udf	#0
    6b98:	2e600705 	uhadd	v5.4h, v24.4h, v0.4h
    6b9c:	00000000 	udf	#0
    6ba0:	2e800705 	.inst	0x2e800705 ; undefined
    6ba4:	00000000 	udf	#0
    6ba8:	2ea00705 	uhadd	v5.2s, v24.2s, v0.2s
    6bac:	00000000 	udf	#0
    6bb0:	2ec00705 	fminnmp	v5.4h, v24.4h, v0.4h
    6bb4:	00000000 	udf	#0
    6bb8:	2ee00705 	.inst	0x2ee00705 ; undefined
    6bbc:	00000000 	udf	#0
    6bc0:	2f000705 	mvni	v5.2s, #0x18
    6bc4:	00000000 	udf	#0
    6bc8:	2f200705 	ushr	v5.2s, v24.2s, #32
    6bcc:	00000000 	udf	#0
    6bd0:	2f400705 	.inst	0x2f400705 ; undefined
    6bd4:	00000000 	udf	#0
    6bd8:	2f600705 	.inst	0x2f600705 ; undefined
    6bdc:	00000000 	udf	#0
    6be0:	2f800705 	.inst	0x2f800705 ; undefined
    6be4:	00000000 	udf	#0
    6be8:	2fa00705 	.inst	0x2fa00705 ; undefined
    6bec:	00000000 	udf	#0
    6bf0:	2fc00705 	.inst	0x2fc00705 ; undefined
    6bf4:	00000000 	udf	#0
    6bf8:	2fe00705 	.inst	0x2fe00705 ; undefined
    6bfc:	00000000 	udf	#0
    6c00:	30000705 	adr	x5, 6ce1 <MMUTableL2.0+0xce1>
    6c04:	00000000 	udf	#0
    6c08:	30200705 	adr	x5, 46ce9 <__stack_end+0x2ff59>
    6c0c:	00000000 	udf	#0
    6c10:	30400705 	adr	x5, 86cf1 <__stack_end+0x6ff61>
    6c14:	00000000 	udf	#0
    6c18:	30600705 	adr	x5, c6cf9 <__stack_end+0xaff69>
    6c1c:	00000000 	udf	#0
    6c20:	30800705 	adr	x5, fffffffffff06d01 <DEVICE+0xff9ffffffff068f8>
    6c24:	00000000 	udf	#0
    6c28:	30a00705 	adr	x5, fffffffffff46d09 <DEVICE+0xff9ffffffff46900>
    6c2c:	00000000 	udf	#0
    6c30:	30c00705 	adr	x5, fffffffffff86d11 <DEVICE+0xff9ffffffff86908>
    6c34:	00000000 	udf	#0
    6c38:	30e00705 	adr	x5, fffffffffffc6d19 <DEVICE+0xff9ffffffffc6910>
    6c3c:	00000000 	udf	#0
    6c40:	31000705 	adds	w5, w24, #0x1
    6c44:	00000000 	udf	#0
    6c48:	31200705 	adds	w5, w24, #0x801
    6c4c:	00000000 	udf	#0
    6c50:	31400705 	adds	w5, w24, #0x1, lsl #12
    6c54:	00000000 	udf	#0
    6c58:	31600705 	adds	w5, w24, #0x801, lsl #12
    6c5c:	00000000 	udf	#0
    6c60:	31800705 	.inst	0x31800705 ; undefined
    6c64:	00000000 	udf	#0
    6c68:	31a00705 	.inst	0x31a00705 ; undefined
    6c6c:	00000000 	udf	#0
    6c70:	31c00705 	.inst	0x31c00705 ; undefined
    6c74:	00000000 	udf	#0
    6c78:	31e00705 	.inst	0x31e00705 ; undefined
    6c7c:	00000000 	udf	#0
    6c80:	32000705 	orr	w5, w24, #0x3
    6c84:	00000000 	udf	#0
    6c88:	32200705 	orr	w5, w24, #0x3
    6c8c:	00000000 	udf	#0
    6c90:	32400705 	.inst	0x32400705 ; undefined
    6c94:	00000000 	udf	#0
    6c98:	32600705 	.inst	0x32600705 ; undefined
    6c9c:	00000000 	udf	#0
    6ca0:	32800705 	.inst	0x32800705 ; undefined
    6ca4:	00000000 	udf	#0
    6ca8:	32a00705 	.inst	0x32a00705 ; undefined
    6cac:	00000000 	udf	#0
    6cb0:	32c00705 	.inst	0x32c00705 ; undefined
    6cb4:	00000000 	udf	#0
    6cb8:	32e00705 	.inst	0x32e00705 ; undefined
    6cbc:	00000000 	udf	#0
    6cc0:	33000705 	bfxil	w5, w24, #0, #2
    6cc4:	00000000 	udf	#0
    6cc8:	33200705 	.inst	0x33200705 ; undefined
    6ccc:	00000000 	udf	#0
    6cd0:	33400705 	.inst	0x33400705 ; undefined
    6cd4:	00000000 	udf	#0
    6cd8:	33600705 	.inst	0x33600705 ; undefined
    6cdc:	00000000 	udf	#0
    6ce0:	33800705 	.inst	0x33800705 ; undefined
    6ce4:	00000000 	udf	#0
    6ce8:	33a00705 	.inst	0x33a00705 ; undefined
    6cec:	00000000 	udf	#0
    6cf0:	33c00705 	.inst	0x33c00705 ; undefined
    6cf4:	00000000 	udf	#0
    6cf8:	33e00705 	.inst	0x33e00705 ; undefined
    6cfc:	00000000 	udf	#0
    6d00:	34000705 	cbz	w5, 6de0 <MMUTableL2.0+0xde0>
    6d04:	00000000 	udf	#0
    6d08:	34200705 	cbz	w5, 46de8 <__stack_end+0x30058>
    6d0c:	00000000 	udf	#0
    6d10:	34400705 	cbz	w5, 86df0 <__stack_end+0x70060>
    6d14:	00000000 	udf	#0
    6d18:	34600705 	cbz	w5, c6df8 <__stack_end+0xb0068>
    6d1c:	00000000 	udf	#0
    6d20:	34800705 	cbz	w5, fffffffffff06e00 <DEVICE+0xff9ffffffff069f7>
    6d24:	00000000 	udf	#0
    6d28:	34a00705 	cbz	w5, fffffffffff46e08 <DEVICE+0xff9ffffffff469ff>
    6d2c:	00000000 	udf	#0
    6d30:	34c00705 	cbz	w5, fffffffffff86e10 <DEVICE+0xff9ffffffff86a07>
    6d34:	00000000 	udf	#0
    6d38:	34e00705 	cbz	w5, fffffffffffc6e18 <DEVICE+0xff9ffffffffc6a0f>
    6d3c:	00000000 	udf	#0
    6d40:	35000705 	cbnz	w5, 6e20 <MMUTableL2.0+0xe20>
    6d44:	00000000 	udf	#0
    6d48:	35200705 	cbnz	w5, 46e28 <__stack_end+0x30098>
    6d4c:	00000000 	udf	#0
    6d50:	35400705 	cbnz	w5, 86e30 <__stack_end+0x700a0>
    6d54:	00000000 	udf	#0
    6d58:	35600705 	cbnz	w5, c6e38 <__stack_end+0xb00a8>
    6d5c:	00000000 	udf	#0
    6d60:	35800705 	cbnz	w5, fffffffffff06e40 <DEVICE+0xff9ffffffff06a37>
    6d64:	00000000 	udf	#0
    6d68:	35a00705 	cbnz	w5, fffffffffff46e48 <DEVICE+0xff9ffffffff46a3f>
    6d6c:	00000000 	udf	#0
    6d70:	35c00705 	cbnz	w5, fffffffffff86e50 <DEVICE+0xff9ffffffff86a47>
    6d74:	00000000 	udf	#0
    6d78:	35e00705 	cbnz	w5, fffffffffffc6e58 <DEVICE+0xff9ffffffffc6a4f>
    6d7c:	00000000 	udf	#0
    6d80:	36000705 	tbz	w5, #0, 6e60 <MMUTableL2.0+0xe60>
    6d84:	00000000 	udf	#0
    6d88:	36200705 	tbz	w5, #4, 6e68 <MMUTableL2.0+0xe68>
    6d8c:	00000000 	udf	#0
    6d90:	36400705 	tbz	w5, #8, 6e70 <MMUTableL2.0+0xe70>
    6d94:	00000000 	udf	#0
    6d98:	36600705 	tbz	w5, #12, 6e78 <MMUTableL2.0+0xe78>
    6d9c:	00000000 	udf	#0
    6da0:	36800705 	tbz	w5, #16, 6e80 <MMUTableL2.0+0xe80>
    6da4:	00000000 	udf	#0
    6da8:	36a00705 	tbz	w5, #20, 6e88 <MMUTableL2.0+0xe88>
    6dac:	00000000 	udf	#0
    6db0:	36c00705 	tbz	w5, #24, 6e90 <MMUTableL2.0+0xe90>
    6db4:	00000000 	udf	#0
    6db8:	36e00705 	tbz	w5, #28, 6e98 <MMUTableL2.0+0xe98>
    6dbc:	00000000 	udf	#0
    6dc0:	37000705 	tbnz	w5, #0, 6ea0 <MMUTableL2.0+0xea0>
    6dc4:	00000000 	udf	#0
    6dc8:	37200705 	tbnz	w5, #4, 6ea8 <MMUTableL2.0+0xea8>
    6dcc:	00000000 	udf	#0
    6dd0:	37400705 	tbnz	w5, #8, 6eb0 <MMUTableL2.0+0xeb0>
    6dd4:	00000000 	udf	#0
    6dd8:	37600705 	tbnz	w5, #12, 6eb8 <MMUTableL2.0+0xeb8>
    6ddc:	00000000 	udf	#0
    6de0:	37800705 	tbnz	w5, #16, 6ec0 <MMUTableL2.0+0xec0>
    6de4:	00000000 	udf	#0
    6de8:	37a00705 	tbnz	w5, #20, 6ec8 <MMUTableL2.0+0xec8>
    6dec:	00000000 	udf	#0
    6df0:	37c00705 	tbnz	w5, #24, 6ed0 <MMUTableL2.0+0xed0>
    6df4:	00000000 	udf	#0
    6df8:	37e00705 	tbnz	w5, #28, 6ed8 <MMUTableL2.0+0xed8>
    6dfc:	00000000 	udf	#0
    6e00:	38000705 	strb	w5, [x24], #0
    6e04:	00000000 	udf	#0
    6e08:	38200705 	.inst	0x38200705 ; undefined
    6e0c:	00000000 	udf	#0
    6e10:	38400705 	ldrb	w5, [x24], #0
    6e14:	00000000 	udf	#0
    6e18:	38600705 	.inst	0x38600705 ; undefined
    6e1c:	00000000 	udf	#0
    6e20:	38800705 	ldrsb	x5, [x24], #0
    6e24:	00000000 	udf	#0
    6e28:	38a00705 	.inst	0x38a00705 ; undefined
    6e2c:	00000000 	udf	#0
    6e30:	38c00705 	ldrsb	w5, [x24], #0
    6e34:	00000000 	udf	#0
    6e38:	38e00705 	.inst	0x38e00705 ; undefined
    6e3c:	00000000 	udf	#0
    6e40:	39000705 	strb	w5, [x24, #1]
    6e44:	00000000 	udf	#0
    6e48:	39200705 	strb	w5, [x24, #2049]
    6e4c:	00000000 	udf	#0
    6e50:	39400705 	ldrb	w5, [x24, #1]
    6e54:	00000000 	udf	#0
    6e58:	39600705 	ldrb	w5, [x24, #2049]
    6e5c:	00000000 	udf	#0
    6e60:	39800705 	ldrsb	x5, [x24, #1]
    6e64:	00000000 	udf	#0
    6e68:	39a00705 	ldrsb	x5, [x24, #2049]
    6e6c:	00000000 	udf	#0
    6e70:	39c00705 	ldrsb	w5, [x24, #1]
    6e74:	00000000 	udf	#0
    6e78:	39e00705 	ldrsb	w5, [x24, #2049]
    6e7c:	00000000 	udf	#0
    6e80:	3a000705 	.inst	0x3a000705 ; undefined
    6e84:	00000000 	udf	#0
    6e88:	3a200705 	.inst	0x3a200705 ; undefined
    6e8c:	00000000 	udf	#0
    6e90:	3a400705 	.inst	0x3a400705 ; undefined
    6e94:	00000000 	udf	#0
    6e98:	3a600705 	.inst	0x3a600705 ; undefined
    6e9c:	00000000 	udf	#0
    6ea0:	3a800705 	.inst	0x3a800705 ; undefined
    6ea4:	00000000 	udf	#0
    6ea8:	3aa00705 	.inst	0x3aa00705 ; undefined
    6eac:	00000000 	udf	#0
    6eb0:	3ac00705 	.inst	0x3ac00705 ; undefined
    6eb4:	00000000 	udf	#0
    6eb8:	3ae00705 	.inst	0x3ae00705 ; undefined
    6ebc:	00000000 	udf	#0
    6ec0:	3b000705 	.inst	0x3b000705 ; undefined
    6ec4:	00000000 	udf	#0
    6ec8:	3b200705 	.inst	0x3b200705 ; undefined
    6ecc:	00000000 	udf	#0
    6ed0:	3b400705 	.inst	0x3b400705 ; undefined
    6ed4:	00000000 	udf	#0
    6ed8:	3b600705 	.inst	0x3b600705 ; undefined
    6edc:	00000000 	udf	#0
    6ee0:	3b800705 	.inst	0x3b800705 ; undefined
    6ee4:	00000000 	udf	#0
    6ee8:	3ba00705 	.inst	0x3ba00705 ; undefined
    6eec:	00000000 	udf	#0
    6ef0:	3bc00705 	.inst	0x3bc00705 ; undefined
    6ef4:	00000000 	udf	#0
    6ef8:	3be00705 	.inst	0x3be00705 ; undefined
    6efc:	00000000 	udf	#0
    6f00:	3c000705 	str	b5, [x24], #0
    6f04:	00000000 	udf	#0
    6f08:	3c200705 	.inst	0x3c200705 ; undefined
    6f0c:	00000000 	udf	#0
    6f10:	3c400705 	ldr	b5, [x24], #0
    6f14:	00000000 	udf	#0
    6f18:	3c600705 	.inst	0x3c600705 ; undefined
    6f1c:	00000000 	udf	#0
    6f20:	3c800705 	str	q5, [x24], #0
    6f24:	00000000 	udf	#0
    6f28:	3ca00705 	.inst	0x3ca00705 ; undefined
    6f2c:	00000000 	udf	#0
    6f30:	3cc00705 	ldr	q5, [x24], #0
    6f34:	00000000 	udf	#0
    6f38:	3ce00705 	.inst	0x3ce00705 ; undefined
    6f3c:	00000000 	udf	#0
    6f40:	3d000705 	str	b5, [x24, #1]
    6f44:	00000000 	udf	#0
    6f48:	3d200705 	str	b5, [x24, #2049]
    6f4c:	00000000 	udf	#0
    6f50:	3d400705 	ldr	b5, [x24, #1]
    6f54:	00000000 	udf	#0
    6f58:	3d600705 	ldr	b5, [x24, #2049]
    6f5c:	00000000 	udf	#0
    6f60:	3d800705 	str	q5, [x24, #16]
    6f64:	00000000 	udf	#0
    6f68:	3da00705 	str	q5, [x24, #32784]
    6f6c:	00000000 	udf	#0
    6f70:	3dc00705 	ldr	q5, [x24, #16]
    6f74:	00000000 	udf	#0
    6f78:	3de00705 	ldr	q5, [x24, #32784]
    6f7c:	00000000 	udf	#0
    6f80:	3e000705 	.inst	0x3e000705 ; undefined
    6f84:	00000000 	udf	#0
    6f88:	3e200705 	.inst	0x3e200705 ; undefined
    6f8c:	00000000 	udf	#0
    6f90:	3e400705 	.inst	0x3e400705 ; undefined
    6f94:	00000000 	udf	#0
    6f98:	3e600705 	.inst	0x3e600705 ; undefined
    6f9c:	00000000 	udf	#0
    6fa0:	3e800705 	.inst	0x3e800705 ; undefined
    6fa4:	00000000 	udf	#0
    6fa8:	3ea00705 	.inst	0x3ea00705 ; undefined
    6fac:	00000000 	udf	#0
    6fb0:	3ec00705 	.inst	0x3ec00705 ; undefined
    6fb4:	00000000 	udf	#0
    6fb8:	3ee00705 	.inst	0x3ee00705 ; undefined
    6fbc:	00000000 	udf	#0
    6fc0:	3f000705 	.inst	0x3f000705 ; undefined
    6fc4:	00000000 	udf	#0
    6fc8:	3f200705 	.inst	0x3f200705 ; undefined
    6fcc:	00000000 	udf	#0
    6fd0:	3f400705 	.inst	0x3f400705 ; undefined
    6fd4:	00000000 	udf	#0
    6fd8:	3f600705 	.inst	0x3f600705 ; undefined
    6fdc:	00000000 	udf	#0
    6fe0:	3f800705 	.inst	0x3f800705 ; undefined
    6fe4:	00000000 	udf	#0
    6fe8:	3fa00705 	.inst	0x3fa00705 ; undefined
    6fec:	00000000 	udf	#0
    6ff0:	3fc00705 	.inst	0x3fc00705 ; undefined
    6ff4:	00000000 	udf	#0
    6ff8:	3fe00705 	.inst	0x3fe00705 ; undefined
    6ffc:	00000000 	udf	#0

0000000000007000 <MMUTableL2.1>:
    7000:	fc000705 	str	d5, [x24], #0
    7004:	00000000 	udf	#0
    7008:	fc200705 	.inst	0xfc200705 ; undefined
    700c:	00000000 	udf	#0
    7010:	fc400705 	ldr	d5, [x24], #0
    7014:	00000000 	udf	#0
    7018:	fc600705 	.inst	0xfc600705 ; undefined
    701c:	00000000 	udf	#0
    7020:	fc800705 	.inst	0xfc800705 ; undefined
    7024:	00000000 	udf	#0
    7028:	fca00705 	.inst	0xfca00705 ; undefined
    702c:	00000000 	udf	#0
    7030:	fcc00705 	.inst	0xfcc00705 ; undefined
    7034:	00000000 	udf	#0
    7038:	fce00705 	.inst	0xfce00705 ; undefined
    703c:	00000000 	udf	#0
    7040:	fd000705 	str	d5, [x24, #8]
    7044:	00000000 	udf	#0
    7048:	fd200705 	str	d5, [x24, #16392]
    704c:	00000000 	udf	#0
    7050:	fd400705 	ldr	d5, [x24, #8]
    7054:	00000000 	udf	#0
    7058:	fd600705 	ldr	d5, [x24, #16392]
    705c:	00000000 	udf	#0
    7060:	fd800705 	.inst	0xfd800705 ; undefined
    7064:	00000000 	udf	#0
    7068:	fda00705 	.inst	0xfda00705 ; undefined
    706c:	00000000 	udf	#0
    7070:	fdc00705 	.inst	0xfdc00705 ; undefined
    7074:	00000000 	udf	#0
    7078:	fde00705 	.inst	0xfde00705 ; undefined
    707c:	00000000 	udf	#0
    7080:	fe000705 	.inst	0xfe000705 ; undefined
    7084:	00000000 	udf	#0
    7088:	fe200705 	.inst	0xfe200705 ; undefined
    708c:	00000000 	udf	#0
    7090:	fe400705 	.inst	0xfe400705 ; undefined
    7094:	00000000 	udf	#0
    7098:	fe600705 	.inst	0xfe600705 ; undefined
    709c:	00000000 	udf	#0
    70a0:	fe800705 	.inst	0xfe800705 ; undefined
    70a4:	00000000 	udf	#0
    70a8:	fea00705 	.inst	0xfea00705 ; undefined
    70ac:	00000000 	udf	#0
    70b0:	fec00705 	.inst	0xfec00705 ; undefined
    70b4:	00000000 	udf	#0
    70b8:	fee00705 	.inst	0xfee00705 ; undefined
    70bc:	00000000 	udf	#0
    70c0:	ff000705 	.inst	0xff000705 ; undefined
    70c4:	00000000 	udf	#0
    70c8:	ff200705 	.inst	0xff200705 ; undefined
    70cc:	00000000 	udf	#0
    70d0:	ff400705 	.inst	0xff400705 ; undefined
    70d4:	00000000 	udf	#0
    70d8:	ff600705 	.inst	0xff600705 ; undefined
    70dc:	00000000 	udf	#0
    70e0:	ff800705 	.inst	0xff800705 ; undefined
    70e4:	00000000 	udf	#0
    70e8:	ffa00705 	.inst	0xffa00705 ; undefined
    70ec:	00000000 	udf	#0
    70f0:	ffc00705 	.inst	0xffc00705 ; undefined
    70f4:	00000000 	udf	#0
    70f8:	ffe00705 	.inst	0xffe00705 ; undefined
    70fc:	00000000 	udf	#0

0000000000007100 <MMUTableL2.2>:
    7100:	00000705 	udf	#1797
    7104:	00000001 	udf	#1
    7108:	00200705 	.inst	0x00200705 ; NYI
    710c:	00000001 	udf	#1
    7110:	00400705 	.inst	0x00400705 ; undefined
    7114:	00000001 	udf	#1
    7118:	00600705 	.inst	0x00600705 ; undefined
    711c:	00000001 	udf	#1
    7120:	00800705 	.inst	0x00800705 ; undefined
    7124:	00000001 	udf	#1
    7128:	00a00705 	.inst	0x00a00705 ; undefined
    712c:	00000001 	udf	#1
    7130:	00c00705 	.inst	0x00c00705 ; undefined
    7134:	00000001 	udf	#1
    7138:	00e00705 	.inst	0x00e00705 ; undefined
    713c:	00000001 	udf	#1
    7140:	01000705 	.inst	0x01000705 ; undefined
    7144:	00000001 	udf	#1
    7148:	01200705 	.inst	0x01200705 ; undefined
    714c:	00000001 	udf	#1
    7150:	01400705 	.inst	0x01400705 ; undefined
    7154:	00000001 	udf	#1
    7158:	01600705 	.inst	0x01600705 ; undefined
    715c:	00000001 	udf	#1
    7160:	01800705 	.inst	0x01800705 ; undefined
    7164:	00000001 	udf	#1
    7168:	01a00705 	.inst	0x01a00705 ; undefined
    716c:	00000001 	udf	#1
    7170:	01c00705 	.inst	0x01c00705 ; undefined
    7174:	00000001 	udf	#1
    7178:	01e00705 	.inst	0x01e00705 ; undefined
    717c:	00000001 	udf	#1
    7180:	02000705 	.inst	0x02000705 ; undefined
    7184:	00000001 	udf	#1
    7188:	02200705 	.inst	0x02200705 ; undefined
    718c:	00000001 	udf	#1
    7190:	02400705 	.inst	0x02400705 ; undefined
    7194:	00000001 	udf	#1
    7198:	02600705 	.inst	0x02600705 ; undefined
    719c:	00000001 	udf	#1
    71a0:	02800705 	.inst	0x02800705 ; undefined
    71a4:	00000001 	udf	#1
    71a8:	02a00705 	.inst	0x02a00705 ; undefined
    71ac:	00000001 	udf	#1
    71b0:	02c00705 	.inst	0x02c00705 ; undefined
    71b4:	00000001 	udf	#1
    71b8:	02e00705 	.inst	0x02e00705 ; undefined
    71bc:	00000001 	udf	#1
    71c0:	03000705 	.inst	0x03000705 ; undefined
    71c4:	00000001 	udf	#1
    71c8:	03200705 	.inst	0x03200705 ; undefined
    71cc:	00000001 	udf	#1
    71d0:	03400705 	.inst	0x03400705 ; undefined
    71d4:	00000001 	udf	#1
    71d8:	03600705 	.inst	0x03600705 ; undefined
    71dc:	00000001 	udf	#1
    71e0:	03800705 	.inst	0x03800705 ; undefined
    71e4:	00000001 	udf	#1
    71e8:	03a00705 	.inst	0x03a00705 ; undefined
    71ec:	00000001 	udf	#1
    71f0:	03c00705 	.inst	0x03c00705 ; undefined
    71f4:	00000001 	udf	#1
    71f8:	03e00705 	.inst	0x03e00705 ; undefined
    71fc:	00000001 	udf	#1
    7200:	04000705 	add	z5.b, p1/m, z5.b, z24.b
    7204:	00000001 	udf	#1
    7208:	04200705 	sub	z5.b, z24.b, z0.b
    720c:	00000001 	udf	#1
    7210:	04400705 	add	z5.h, p1/m, z5.h, z24.h
    7214:	00000001 	udf	#1
    7218:	04600705 	sub	z5.h, z24.h, z0.h
    721c:	00000001 	udf	#1
    7220:	04800705 	add	z5.s, p1/m, z5.s, z24.s
    7224:	00000001 	udf	#1
    7228:	04a00705 	sub	z5.s, z24.s, z0.s
    722c:	00000001 	udf	#1
    7230:	04c00705 	add	z5.d, p1/m, z5.d, z24.d
    7234:	00000001 	udf	#1
    7238:	04e00705 	sub	z5.d, z24.d, z0.d
    723c:	00000001 	udf	#1
    7240:	05000705 	orr	z5.b, z5.b, #0x11
    7244:	00000001 	udf	#1
    7248:	05200705 	ext	z5.b, z5.b, z24.b, #1
    724c:	00000001 	udf	#1
    7250:	05400705 	eor	z5.b, z5.b, #0x11
    7254:	00000001 	udf	#1
    7258:	05600705 	ext	z5.b, {z24.b-z25.b}, #1
    725c:	00000001 	udf	#1
    7260:	05800705 	and	z5.b, z5.b, #0x11
    7264:	00000001 	udf	#1
    7268:	05a00705 	zip2	z5.q, z24.q, z0.q
    726c:	00000001 	udf	#1
    7270:	05c00705 	dupm	z5.b, #0x11
    7274:	00000001 	udf	#1
    7278:	05e00705 	.inst	0x05e00705 ; undefined
    727c:	00000001 	udf	#1
    7280:	06000705 	.inst	0x06000705 ; undefined
    7284:	00000001 	udf	#1
    7288:	06200705 	.inst	0x06200705 ; undefined
    728c:	00000001 	udf	#1
    7290:	06400705 	.inst	0x06400705 ; undefined
    7294:	00000001 	udf	#1
    7298:	06600705 	.inst	0x06600705 ; undefined
    729c:	00000001 	udf	#1
    72a0:	06800705 	.inst	0x06800705 ; undefined
    72a4:	00000001 	udf	#1
    72a8:	06a00705 	.inst	0x06a00705 ; undefined
    72ac:	00000001 	udf	#1
    72b0:	06c00705 	.inst	0x06c00705 ; undefined
    72b4:	00000001 	udf	#1
    72b8:	06e00705 	.inst	0x06e00705 ; undefined
    72bc:	00000001 	udf	#1
    72c0:	07000705 	.inst	0x07000705 ; undefined
    72c4:	00000001 	udf	#1
    72c8:	07200705 	.inst	0x07200705 ; undefined
    72cc:	00000001 	udf	#1
    72d0:	07400705 	.inst	0x07400705 ; undefined
    72d4:	00000001 	udf	#1
    72d8:	07600705 	.inst	0x07600705 ; undefined
    72dc:	00000001 	udf	#1
    72e0:	07800705 	.inst	0x07800705 ; undefined
    72e4:	00000001 	udf	#1
    72e8:	07a00705 	.inst	0x07a00705 ; undefined
    72ec:	00000001 	udf	#1
    72f0:	07c00705 	.inst	0x07c00705 ; undefined
    72f4:	00000001 	udf	#1
    72f8:	07e00705 	.inst	0x07e00705 ; undefined
    72fc:	00000001 	udf	#1
    7300:	08000705 	stxrb	w0, w5, [x24]
    7304:	00000001 	udf	#1
    7308:	08200705 	.inst	0x08200705 ; undefined
    730c:	00000001 	udf	#1
    7310:	08400705 	ldxrb	w5, [x24]
    7314:	00000001 	udf	#1
    7318:	08600705 	.inst	0x08600705 ; undefined
    731c:	00000001 	udf	#1
    7320:	08800705 	stllrb	w5, [x24]
    7324:	00000001 	udf	#1
    7328:	08a00705 	.inst	0x08a00705 ; undefined
    732c:	00000001 	udf	#1
    7330:	08c00705 	ldlarb	w5, [x24]
    7334:	00000001 	udf	#1
    7338:	08e00705 	.inst	0x08e00705 ; undefined
    733c:	00000001 	udf	#1
    7340:	09000705 	.inst	0x09000705 ; undefined
    7344:	00000001 	udf	#1
    7348:	09200705 	.inst	0x09200705 ; undefined
    734c:	00000001 	udf	#1
    7350:	09400705 	.inst	0x09400705 ; undefined
    7354:	00000001 	udf	#1
    7358:	09600705 	.inst	0x09600705 ; undefined
    735c:	00000001 	udf	#1
    7360:	09800705 	.inst	0x09800705 ; undefined
    7364:	00000001 	udf	#1
    7368:	09a00705 	.inst	0x09a00705 ; undefined
    736c:	00000001 	udf	#1
    7370:	09c00705 	.inst	0x09c00705 ; undefined
    7374:	00000001 	udf	#1
    7378:	09e00705 	.inst	0x09e00705 ; undefined
    737c:	00000001 	udf	#1
    7380:	0a000705 	and	w5, w24, w0, lsl #1
    7384:	00000001 	udf	#1
    7388:	0a200705 	bic	w5, w24, w0, lsl #1
    738c:	00000001 	udf	#1
    7390:	0a400705 	and	w5, w24, w0, lsr #1
    7394:	00000001 	udf	#1
    7398:	0a600705 	bic	w5, w24, w0, lsr #1
    739c:	00000001 	udf	#1
    73a0:	0a800705 	and	w5, w24, w0, asr #1
    73a4:	00000001 	udf	#1
    73a8:	0aa00705 	bic	w5, w24, w0, asr #1
    73ac:	00000001 	udf	#1
    73b0:	0ac00705 	and	w5, w24, w0, ror #1
    73b4:	00000001 	udf	#1
    73b8:	0ae00705 	bic	w5, w24, w0, ror #1
    73bc:	00000001 	udf	#1
    73c0:	0b000705 	add	w5, w24, w0, lsl #1
    73c4:	00000001 	udf	#1
    73c8:	0b200705 	add	w5, w24, w0, uxtb #1
    73cc:	00000001 	udf	#1
    73d0:	0b400705 	add	w5, w24, w0, lsr #1
    73d4:	00000001 	udf	#1
    73d8:	0b600705 	.inst	0x0b600705 ; undefined
    73dc:	00000001 	udf	#1
    73e0:	0b800705 	add	w5, w24, w0, asr #1
    73e4:	00000001 	udf	#1
    73e8:	0ba00705 	.inst	0x0ba00705 ; undefined
    73ec:	00000001 	udf	#1
    73f0:	0bc00705 	.inst	0x0bc00705 ; undefined
    73f4:	00000001 	udf	#1
    73f8:	0be00705 	.inst	0x0be00705 ; undefined
    73fc:	00000001 	udf	#1
    7400:	0c000705 	st4	{v5.4h-v8.4h}, [x24]
    7404:	00000001 	udf	#1
    7408:	0c200705 	.inst	0x0c200705 ; undefined
    740c:	00000001 	udf	#1
    7410:	0c400705 	ld4	{v5.4h-v8.4h}, [x24]
    7414:	00000001 	udf	#1
    7418:	0c600705 	.inst	0x0c600705 ; undefined
    741c:	00000001 	udf	#1
    7420:	0c800705 	st4	{v5.4h-v8.4h}, [x24], x0
    7424:	00000001 	udf	#1
    7428:	0ca00705 	.inst	0x0ca00705 ; undefined
    742c:	00000001 	udf	#1
    7430:	0cc00705 	ld4	{v5.4h-v8.4h}, [x24], x0
    7434:	00000001 	udf	#1
    7438:	0ce00705 	.inst	0x0ce00705 ; undefined
    743c:	00000001 	udf	#1
    7440:	0d000705 	st1	{v5.b}[1], [x24]
    7444:	00000001 	udf	#1
    7448:	0d200705 	st2	{v5.b-v6.b}[1], [x24]
    744c:	00000001 	udf	#1
    7450:	0d400705 	ld1	{v5.b}[1], [x24]
    7454:	00000001 	udf	#1
    7458:	0d600705 	ld2	{v5.b-v6.b}[1], [x24]
    745c:	00000001 	udf	#1
    7460:	0d800705 	st1	{v5.b}[1], [x24], x0
    7464:	00000001 	udf	#1
    7468:	0da00705 	st2	{v5.b-v6.b}[1], [x24], x0
    746c:	00000001 	udf	#1
    7470:	0dc00705 	ld1	{v5.b}[1], [x24], x0
    7474:	00000001 	udf	#1
    7478:	0de00705 	ld2	{v5.b-v6.b}[1], [x24], x0
    747c:	00000001 	udf	#1
    7480:	0e000705 	.inst	0x0e000705 ; undefined
    7484:	00000001 	udf	#1
    7488:	0e200705 	shadd	v5.8b, v24.8b, v0.8b
    748c:	00000001 	udf	#1
    7490:	0e400705 	fmaxnm	v5.4h, v24.4h, v0.4h
    7494:	00000001 	udf	#1
    7498:	0e600705 	shadd	v5.4h, v24.4h, v0.4h
    749c:	00000001 	udf	#1
    74a0:	0e800705 	.inst	0x0e800705 ; undefined
    74a4:	00000001 	udf	#1
    74a8:	0ea00705 	shadd	v5.2s, v24.2s, v0.2s
    74ac:	00000001 	udf	#1
    74b0:	0ec00705 	fminnm	v5.4h, v24.4h, v0.4h
    74b4:	00000001 	udf	#1
    74b8:	0ee00705 	.inst	0x0ee00705 ; undefined
    74bc:	00000001 	udf	#1
    74c0:	0f000705 	movi	v5.2s, #0x18
    74c4:	00000001 	udf	#1
    74c8:	0f200705 	sshr	v5.2s, v24.2s, #32
    74cc:	00000001 	udf	#1
    74d0:	0f400705 	.inst	0x0f400705 ; undefined
    74d4:	00000001 	udf	#1
    74d8:	0f600705 	.inst	0x0f600705 ; undefined
    74dc:	00000001 	udf	#1
    74e0:	0f800705 	.inst	0x0f800705 ; undefined
    74e4:	00000001 	udf	#1
    74e8:	0fa00705 	.inst	0x0fa00705 ; undefined
    74ec:	00000001 	udf	#1
    74f0:	0fc00705 	.inst	0x0fc00705 ; undefined
    74f4:	00000001 	udf	#1
    74f8:	0fe00705 	.inst	0x0fe00705 ; undefined
    74fc:	00000001 	udf	#1
    7500:	10000705 	adr	x5, 75e0 <MMUTableL2.2+0x4e0>
    7504:	00000001 	udf	#1
    7508:	10200705 	adr	x5, 475e8 <__stack_end+0x30858>
    750c:	00000001 	udf	#1
    7510:	10400705 	adr	x5, 875f0 <__stack_end+0x70860>
    7514:	00000001 	udf	#1
    7518:	10600705 	adr	x5, c75f8 <__stack_end+0xb0868>
    751c:	00000001 	udf	#1
    7520:	10800705 	adr	x5, fffffffffff07600 <DEVICE+0xff9ffffffff071f7>
    7524:	00000001 	udf	#1
    7528:	10a00705 	adr	x5, fffffffffff47608 <DEVICE+0xff9ffffffff471ff>
    752c:	00000001 	udf	#1
    7530:	10c00705 	adr	x5, fffffffffff87610 <DEVICE+0xff9ffffffff87207>
    7534:	00000001 	udf	#1
    7538:	10e00705 	adr	x5, fffffffffffc7618 <DEVICE+0xff9ffffffffc720f>
    753c:	00000001 	udf	#1
    7540:	11000705 	add	w5, w24, #0x1
    7544:	00000001 	udf	#1
    7548:	11200705 	add	w5, w24, #0x801
    754c:	00000001 	udf	#1
    7550:	11400705 	add	w5, w24, #0x1, lsl #12
    7554:	00000001 	udf	#1
    7558:	11600705 	add	w5, w24, #0x801, lsl #12
    755c:	00000001 	udf	#1
    7560:	11800705 	.inst	0x11800705 ; undefined
    7564:	00000001 	udf	#1
    7568:	11a00705 	.inst	0x11a00705 ; undefined
    756c:	00000001 	udf	#1
    7570:	11c00705 	smax	w5, w24, #1
    7574:	00000001 	udf	#1
    7578:	11e00705 	.inst	0x11e00705 ; undefined
    757c:	00000001 	udf	#1
    7580:	12000705 	and	w5, w24, #0x3
    7584:	00000001 	udf	#1
    7588:	12200705 	and	w5, w24, #0x3
    758c:	00000001 	udf	#1
    7590:	12400705 	.inst	0x12400705 ; undefined
    7594:	00000001 	udf	#1
    7598:	12600705 	.inst	0x12600705 ; undefined
    759c:	00000001 	udf	#1
    75a0:	12800705 	mov	w5, #0xffffffc7            	// #-57
    75a4:	00000001 	udf	#1
    75a8:	12a00705 	mov	w5, #0xffc7ffff            	// #-3670017
    75ac:	00000001 	udf	#1
    75b0:	12c00705 	.inst	0x12c00705 ; undefined
    75b4:	00000001 	udf	#1
    75b8:	12e00705 	.inst	0x12e00705 ; undefined
    75bc:	00000001 	udf	#1
    75c0:	13000705 	sbfx	w5, w24, #0, #2
    75c4:	00000001 	udf	#1
    75c8:	13200705 	.inst	0x13200705 ; undefined
    75cc:	00000001 	udf	#1
    75d0:	13400705 	.inst	0x13400705 ; undefined
    75d4:	00000001 	udf	#1
    75d8:	13600705 	.inst	0x13600705 ; undefined
    75dc:	00000001 	udf	#1
    75e0:	13800705 	extr	w5, w24, w0, #1
    75e4:	00000001 	udf	#1
    75e8:	13a00705 	.inst	0x13a00705 ; undefined
    75ec:	00000001 	udf	#1
    75f0:	13c00705 	.inst	0x13c00705 ; undefined
    75f4:	00000001 	udf	#1
    75f8:	13e00705 	.inst	0x13e00705 ; undefined
    75fc:	00000001 	udf	#1
    7600:	14000705 	b	9214 <MMUTableL2.2+0x2114>
    7604:	00000001 	udf	#1
    7608:	14200705 	b	80921c <__buffer_end+0x50921c>
    760c:	00000001 	udf	#1
    7610:	14400705 	b	1009224 <__buffer_end+0xd09224>
    7614:	00000001 	udf	#1
    7618:	14600705 	b	180922c <__buffer_end+0x150922c>
    761c:	00000001 	udf	#1
    7620:	14800705 	b	2009234 <__buffer_end+0x1d09234>
    7624:	00000001 	udf	#1
    7628:	14a00705 	b	280923c <__buffer_end+0x250923c>
    762c:	00000001 	udf	#1
    7630:	14c00705 	b	3009244 <__buffer_end+0x2d09244>
    7634:	00000001 	udf	#1
    7638:	14e00705 	b	380924c <__buffer_end+0x350924c>
    763c:	00000001 	udf	#1
    7640:	15000705 	b	4009254 <__buffer_end+0x3d09254>
    7644:	00000001 	udf	#1
    7648:	15200705 	b	480925c <__buffer_end+0x450925c>
    764c:	00000001 	udf	#1
    7650:	15400705 	b	5009264 <__buffer_end+0x4d09264>
    7654:	00000001 	udf	#1
    7658:	15600705 	b	580926c <__buffer_end+0x550926c>
    765c:	00000001 	udf	#1
    7660:	15800705 	b	6009274 <__buffer_end+0x5d09274>
    7664:	00000001 	udf	#1
    7668:	15a00705 	b	680927c <__buffer_end+0x650927c>
    766c:	00000001 	udf	#1
    7670:	15c00705 	b	7009284 <__buffer_end+0x6d09284>
    7674:	00000001 	udf	#1
    7678:	15e00705 	b	780928c <__buffer_end+0x750928c>
    767c:	00000001 	udf	#1
    7680:	16000705 	b	fffffffff8009294 <DEVICE+0xff9ffffff8008e8b>
    7684:	00000001 	udf	#1
    7688:	16200705 	b	fffffffff880929c <DEVICE+0xff9ffffff8808e93>
    768c:	00000001 	udf	#1
    7690:	16400705 	b	fffffffff90092a4 <DEVICE+0xff9ffffff9008e9b>
    7694:	00000001 	udf	#1
    7698:	16600705 	b	fffffffff98092ac <DEVICE+0xff9ffffff9808ea3>
    769c:	00000001 	udf	#1
    76a0:	16800705 	b	fffffffffa0092b4 <DEVICE+0xff9ffffffa008eab>
    76a4:	00000001 	udf	#1
    76a8:	16a00705 	b	fffffffffa8092bc <DEVICE+0xff9ffffffa808eb3>
    76ac:	00000001 	udf	#1
    76b0:	16c00705 	b	fffffffffb0092c4 <DEVICE+0xff9ffffffb008ebb>
    76b4:	00000001 	udf	#1
    76b8:	16e00705 	b	fffffffffb8092cc <DEVICE+0xff9ffffffb808ec3>
    76bc:	00000001 	udf	#1
    76c0:	17000705 	b	fffffffffc0092d4 <DEVICE+0xff9ffffffc008ecb>
    76c4:	00000001 	udf	#1
    76c8:	17200705 	b	fffffffffc8092dc <DEVICE+0xff9ffffffc808ed3>
    76cc:	00000001 	udf	#1
    76d0:	17400705 	b	fffffffffd0092e4 <DEVICE+0xff9ffffffd008edb>
    76d4:	00000001 	udf	#1
    76d8:	17600705 	b	fffffffffd8092ec <DEVICE+0xff9ffffffd808ee3>
    76dc:	00000001 	udf	#1
    76e0:	17800705 	b	fffffffffe0092f4 <DEVICE+0xff9ffffffe008eeb>
    76e4:	00000001 	udf	#1
    76e8:	17a00705 	b	fffffffffe8092fc <DEVICE+0xff9ffffffe808ef3>
    76ec:	00000001 	udf	#1
    76f0:	17c00705 	b	ffffffffff009304 <DEVICE+0xff9fffffff008efb>
    76f4:	00000001 	udf	#1
    76f8:	17e00705 	b	ffffffffff80930c <DEVICE+0xff9fffffff808f03>
    76fc:	00000001 	udf	#1
    7700:	18000705 	ldr	w5, 77e0 <MMUTableL2.2+0x6e0>
    7704:	00000001 	udf	#1
    7708:	18200705 	ldr	w5, 477e8 <__stack_end+0x30a58>
    770c:	00000001 	udf	#1
    7710:	18400705 	ldr	w5, 877f0 <__stack_end+0x70a60>
    7714:	00000001 	udf	#1
    7718:	18600705 	ldr	w5, c77f8 <__stack_end+0xb0a68>
    771c:	00000001 	udf	#1
    7720:	18800705 	ldr	w5, fffffffffff07800 <DEVICE+0xff9ffffffff073f7>
    7724:	00000001 	udf	#1
    7728:	18a00705 	ldr	w5, fffffffffff47808 <DEVICE+0xff9ffffffff473ff>
    772c:	00000001 	udf	#1
    7730:	18c00705 	ldr	w5, fffffffffff87810 <DEVICE+0xff9ffffffff87407>
    7734:	00000001 	udf	#1
    7738:	18e00705 	ldr	w5, fffffffffffc7818 <DEVICE+0xff9ffffffffc740f>
    773c:	00000001 	udf	#1
    7740:	19000705 	cpyfp	[x5]!, [x0]!, x24!
    7744:	00000001 	udf	#1
    7748:	19200705 	.inst	0x19200705 ; undefined
    774c:	00000001 	udf	#1
    7750:	19400705 	cpyfm	[x5]!, [x0]!, x24!
    7754:	00000001 	udf	#1
    7758:	19600705 	.inst	0x19600705 ; undefined
    775c:	00000001 	udf	#1
    7760:	19800705 	cpyfe	[x5]!, [x0]!, x24!
    7764:	00000001 	udf	#1
    7768:	19a00705 	.inst	0x19a00705 ; undefined
    776c:	00000001 	udf	#1
    7770:	19c00705 	setp	[x5]!, x24!, x0
    7774:	00000001 	udf	#1
    7778:	19e00705 	.inst	0x19e00705 ; undefined
    777c:	00000001 	udf	#1
    7780:	1a000705 	.inst	0x1a000705 ; undefined
    7784:	00000001 	udf	#1
    7788:	1a200705 	.inst	0x1a200705 ; undefined
    778c:	00000001 	udf	#1
    7790:	1a400705 	.inst	0x1a400705 ; undefined
    7794:	00000001 	udf	#1
    7798:	1a600705 	.inst	0x1a600705 ; undefined
    779c:	00000001 	udf	#1
    77a0:	1a800705 	csinc	w5, w24, w0, eq	// eq = none
    77a4:	00000001 	udf	#1
    77a8:	1aa00705 	.inst	0x1aa00705 ; undefined
    77ac:	00000001 	udf	#1
    77b0:	1ac00705 	.inst	0x1ac00705 ; undefined
    77b4:	00000001 	udf	#1
    77b8:	1ae00705 	.inst	0x1ae00705 ; undefined
    77bc:	00000001 	udf	#1
    77c0:	1b000705 	madd	w5, w24, w0, w1
    77c4:	00000001 	udf	#1
    77c8:	1b200705 	.inst	0x1b200705 ; undefined
    77cc:	00000001 	udf	#1
    77d0:	1b400705 	.inst	0x1b400705 ; undefined
    77d4:	00000001 	udf	#1
    77d8:	1b600705 	.inst	0x1b600705 ; undefined
    77dc:	00000001 	udf	#1
    77e0:	1b800705 	.inst	0x1b800705 ; undefined
    77e4:	00000001 	udf	#1
    77e8:	1ba00705 	.inst	0x1ba00705 ; undefined
    77ec:	00000001 	udf	#1
    77f0:	1bc00705 	.inst	0x1bc00705 ; undefined
    77f4:	00000001 	udf	#1
    77f8:	1be00705 	.inst	0x1be00705 ; undefined
    77fc:	00000001 	udf	#1
    7800:	1c000705 	ldr	s5, 78e0 <MMUTableL2.2+0x7e0>
    7804:	00000001 	udf	#1
    7808:	1c200705 	ldr	s5, 478e8 <__stack_end+0x30b58>
    780c:	00000001 	udf	#1
    7810:	1c400705 	ldr	s5, 878f0 <__stack_end+0x70b60>
    7814:	00000001 	udf	#1
    7818:	1c600705 	ldr	s5, c78f8 <__stack_end+0xb0b68>
    781c:	00000001 	udf	#1
    7820:	1c800705 	ldr	s5, fffffffffff07900 <DEVICE+0xff9ffffffff074f7>
    7824:	00000001 	udf	#1
    7828:	1ca00705 	ldr	s5, fffffffffff47908 <DEVICE+0xff9ffffffff474ff>
    782c:	00000001 	udf	#1
    7830:	1cc00705 	ldr	s5, fffffffffff87910 <DEVICE+0xff9ffffffff87507>
    7834:	00000001 	udf	#1
    7838:	1ce00705 	ldr	s5, fffffffffffc7918 <DEVICE+0xff9ffffffffc750f>
    783c:	00000001 	udf	#1
    7840:	1d000705 	cpyp	[x5]!, [x0]!, x24!
    7844:	00000001 	udf	#1
    7848:	1d200705 	.inst	0x1d200705 ; undefined
    784c:	00000001 	udf	#1
    7850:	1d400705 	cpym	[x5]!, [x0]!, x24!
    7854:	00000001 	udf	#1
    7858:	1d600705 	.inst	0x1d600705 ; undefined
    785c:	00000001 	udf	#1
    7860:	1d800705 	cpye	[x5]!, [x0]!, x24!
    7864:	00000001 	udf	#1
    7868:	1da00705 	.inst	0x1da00705 ; undefined
    786c:	00000001 	udf	#1
    7870:	1dc00705 	setgp	[x5]!, x24!, x0
    7874:	00000001 	udf	#1
    7878:	1de00705 	.inst	0x1de00705 ; undefined
    787c:	00000001 	udf	#1
    7880:	1e000705 	.inst	0x1e000705 ; undefined
    7884:	00000001 	udf	#1
    7888:	1e200705 	fccmp	s24, s0, #0x5, eq	// eq = none
    788c:	00000001 	udf	#1
    7890:	1e400705 	.inst	0x1e400705 ; undefined
    7894:	00000001 	udf	#1
    7898:	1e600705 	fccmp	d24, d0, #0x5, eq	// eq = none
    789c:	00000001 	udf	#1
    78a0:	1e800705 	.inst	0x1e800705 ; undefined
    78a4:	00000001 	udf	#1
    78a8:	1ea00705 	.inst	0x1ea00705 ; undefined
    78ac:	00000001 	udf	#1
    78b0:	1ec00705 	.inst	0x1ec00705 ; undefined
    78b4:	00000001 	udf	#1
    78b8:	1ee00705 	fccmp	h24, h0, #0x5, eq	// eq = none
    78bc:	00000001 	udf	#1
    78c0:	1f000705 	fmadd	s5, s24, s0, s1
    78c4:	00000001 	udf	#1
    78c8:	1f200705 	fnmadd	s5, s24, s0, s1
    78cc:	00000001 	udf	#1
    78d0:	1f400705 	fmadd	d5, d24, d0, d1
    78d4:	00000001 	udf	#1
    78d8:	1f600705 	fnmadd	d5, d24, d0, d1
    78dc:	00000001 	udf	#1
    78e0:	1f800705 	.inst	0x1f800705 ; undefined
    78e4:	00000001 	udf	#1
    78e8:	1fa00705 	.inst	0x1fa00705 ; undefined
    78ec:	00000001 	udf	#1
    78f0:	1fc00705 	fmadd	h5, h24, h0, h1
    78f4:	00000001 	udf	#1
    78f8:	1fe00705 	fnmadd	h5, h24, h0, h1
    78fc:	00000001 	udf	#1
    7900:	20000705 	.inst	0x20000705 ; undefined
    7904:	00000001 	udf	#1
    7908:	20200705 	.inst	0x20200705 ; undefined
    790c:	00000001 	udf	#1
    7910:	20400705 	.inst	0x20400705 ; undefined
    7914:	00000001 	udf	#1
    7918:	20600705 	.inst	0x20600705 ; undefined
    791c:	00000001 	udf	#1
    7920:	20800705 	.inst	0x20800705 ; undefined
    7924:	00000001 	udf	#1
    7928:	20a00705 	.inst	0x20a00705 ; undefined
    792c:	00000001 	udf	#1
    7930:	20c00705 	.inst	0x20c00705 ; undefined
    7934:	00000001 	udf	#1
    7938:	20e00705 	.inst	0x20e00705 ; undefined
    793c:	00000001 	udf	#1
    7940:	21000705 	.inst	0x21000705 ; undefined
    7944:	00000001 	udf	#1
    7948:	21200705 	.inst	0x21200705 ; undefined
    794c:	00000001 	udf	#1
    7950:	21400705 	.inst	0x21400705 ; undefined
    7954:	00000001 	udf	#1
    7958:	21600705 	.inst	0x21600705 ; undefined
    795c:	00000001 	udf	#1
    7960:	21800705 	.inst	0x21800705 ; undefined
    7964:	00000001 	udf	#1
    7968:	21a00705 	.inst	0x21a00705 ; undefined
    796c:	00000001 	udf	#1
    7970:	21c00705 	.inst	0x21c00705 ; undefined
    7974:	00000001 	udf	#1
    7978:	21e00705 	.inst	0x21e00705 ; undefined
    797c:	00000001 	udf	#1
    7980:	22000705 	.inst	0x22000705 ; undefined
    7984:	00000001 	udf	#1
    7988:	22200705 	.inst	0x22200705 ; undefined
    798c:	00000001 	udf	#1
    7990:	22400705 	.inst	0x22400705 ; undefined
    7994:	00000001 	udf	#1
    7998:	22600705 	.inst	0x22600705 ; undefined
    799c:	00000001 	udf	#1
    79a0:	22800705 	.inst	0x22800705 ; undefined
    79a4:	00000001 	udf	#1
    79a8:	22a00705 	.inst	0x22a00705 ; undefined
    79ac:	00000001 	udf	#1
    79b0:	22c00705 	.inst	0x22c00705 ; undefined
    79b4:	00000001 	udf	#1
    79b8:	22e00705 	.inst	0x22e00705 ; undefined
    79bc:	00000001 	udf	#1
    79c0:	23000705 	.inst	0x23000705 ; undefined
    79c4:	00000001 	udf	#1
    79c8:	23200705 	.inst	0x23200705 ; undefined
    79cc:	00000001 	udf	#1
    79d0:	23400705 	.inst	0x23400705 ; undefined
    79d4:	00000001 	udf	#1
    79d8:	23600705 	.inst	0x23600705 ; undefined
    79dc:	00000001 	udf	#1
    79e0:	23800705 	.inst	0x23800705 ; undefined
    79e4:	00000001 	udf	#1
    79e8:	23a00705 	.inst	0x23a00705 ; undefined
    79ec:	00000001 	udf	#1
    79f0:	23c00705 	.inst	0x23c00705 ; undefined
    79f4:	00000001 	udf	#1
    79f8:	23e00705 	.inst	0x23e00705 ; undefined
    79fc:	00000001 	udf	#1
    7a00:	24000705 	cmphs	p5.b, p1/z, z24.b, z0.b
    7a04:	00000001 	udf	#1
    7a08:	24200705 	cmphs	p5.b, p1/z, z24.b, #0
    7a0c:	00000001 	udf	#1
    7a10:	24400705 	cmphs	p5.h, p1/z, z24.h, z0.h
    7a14:	00000001 	udf	#1
    7a18:	24600705 	cmphs	p5.h, p1/z, z24.h, #0
    7a1c:	00000001 	udf	#1
    7a20:	24800705 	cmphs	p5.s, p1/z, z24.s, z0.s
    7a24:	00000001 	udf	#1
    7a28:	24a00705 	cmphs	p5.s, p1/z, z24.s, #0
    7a2c:	00000001 	udf	#1
    7a30:	24c00705 	cmphs	p5.d, p1/z, z24.d, z0.d
    7a34:	00000001 	udf	#1
    7a38:	24e00705 	cmphs	p5.d, p1/z, z24.d, #0
    7a3c:	00000001 	udf	#1
    7a40:	25000705 	cmpge	p5.b, p1/z, z24.b, #0
    7a44:	00000001 	udf	#1
    7a48:	25200705 	whilelt	p5.b, w24, w0
    7a4c:	00000001 	udf	#1
    7a50:	25400705 	cmpge	p5.h, p1/z, z24.h, #0
    7a54:	00000001 	udf	#1
    7a58:	25600705 	whilelt	p5.h, w24, w0
    7a5c:	00000001 	udf	#1
    7a60:	25800705 	cmpge	p5.s, p1/z, z24.s, #0
    7a64:	00000001 	udf	#1
    7a68:	25a00705 	whilelt	p5.s, w24, w0
    7a6c:	00000001 	udf	#1
    7a70:	25c00705 	cmpge	p5.d, p1/z, z24.d, #0
    7a74:	00000001 	udf	#1
    7a78:	25e00705 	whilelt	p5.d, w24, w0
    7a7c:	00000001 	udf	#1
    7a80:	26000705 	.inst	0x26000705 ; undefined
    7a84:	00000001 	udf	#1
    7a88:	26200705 	.inst	0x26200705 ; undefined
    7a8c:	00000001 	udf	#1
    7a90:	26400705 	.inst	0x26400705 ; undefined
    7a94:	00000001 	udf	#1
    7a98:	26600705 	.inst	0x26600705 ; undefined
    7a9c:	00000001 	udf	#1
    7aa0:	26800705 	.inst	0x26800705 ; undefined
    7aa4:	00000001 	udf	#1
    7aa8:	26a00705 	.inst	0x26a00705 ; undefined
    7aac:	00000001 	udf	#1
    7ab0:	26c00705 	.inst	0x26c00705 ; undefined
    7ab4:	00000001 	udf	#1
    7ab8:	26e00705 	.inst	0x26e00705 ; undefined
    7abc:	00000001 	udf	#1
    7ac0:	27000705 	.inst	0x27000705 ; undefined
    7ac4:	00000001 	udf	#1
    7ac8:	27200705 	.inst	0x27200705 ; undefined
    7acc:	00000001 	udf	#1
    7ad0:	27400705 	.inst	0x27400705 ; undefined
    7ad4:	00000001 	udf	#1
    7ad8:	27600705 	.inst	0x27600705 ; undefined
    7adc:	00000001 	udf	#1
    7ae0:	27800705 	.inst	0x27800705 ; undefined
    7ae4:	00000001 	udf	#1
    7ae8:	27a00705 	.inst	0x27a00705 ; undefined
    7aec:	00000001 	udf	#1
    7af0:	27c00705 	.inst	0x27c00705 ; undefined
    7af4:	00000001 	udf	#1
    7af8:	27e00705 	.inst	0x27e00705 ; undefined
    7afc:	00000001 	udf	#1
    7b00:	28000705 	stnp	w5, w1, [x24]
    7b04:	00000001 	udf	#1
    7b08:	28200705 	stnp	w5, w1, [x24, #-256]
    7b0c:	00000001 	udf	#1
    7b10:	28400705 	ldnp	w5, w1, [x24]
    7b14:	00000001 	udf	#1
    7b18:	28600705 	ldnp	w5, w1, [x24, #-256]
    7b1c:	00000001 	udf	#1
    7b20:	28800705 	stp	w5, w1, [x24], #0
    7b24:	00000001 	udf	#1
    7b28:	28a00705 	stp	w5, w1, [x24], #-256
    7b2c:	00000001 	udf	#1
    7b30:	28c00705 	ldp	w5, w1, [x24], #0
    7b34:	00000001 	udf	#1
    7b38:	28e00705 	ldp	w5, w1, [x24], #-256
    7b3c:	00000001 	udf	#1
    7b40:	29000705 	stp	w5, w1, [x24]
    7b44:	00000001 	udf	#1
    7b48:	29200705 	stp	w5, w1, [x24, #-256]
    7b4c:	00000001 	udf	#1
    7b50:	29400705 	ldp	w5, w1, [x24]
    7b54:	00000001 	udf	#1
    7b58:	29600705 	ldp	w5, w1, [x24, #-256]
    7b5c:	00000001 	udf	#1
    7b60:	29800705 	stp	w5, w1, [x24, #0]!
    7b64:	00000001 	udf	#1
    7b68:	29a00705 	stp	w5, w1, [x24, #-256]!
    7b6c:	00000001 	udf	#1
    7b70:	29c00705 	ldp	w5, w1, [x24, #0]!
    7b74:	00000001 	udf	#1
    7b78:	29e00705 	ldp	w5, w1, [x24, #-256]!
    7b7c:	00000001 	udf	#1
    7b80:	2a000705 	orr	w5, w24, w0, lsl #1
    7b84:	00000001 	udf	#1
    7b88:	2a200705 	orn	w5, w24, w0, lsl #1
    7b8c:	00000001 	udf	#1
    7b90:	2a400705 	orr	w5, w24, w0, lsr #1
    7b94:	00000001 	udf	#1
    7b98:	2a600705 	orn	w5, w24, w0, lsr #1
    7b9c:	00000001 	udf	#1
    7ba0:	2a800705 	orr	w5, w24, w0, asr #1
    7ba4:	00000001 	udf	#1
    7ba8:	2aa00705 	orn	w5, w24, w0, asr #1
    7bac:	00000001 	udf	#1
    7bb0:	2ac00705 	orr	w5, w24, w0, ror #1
    7bb4:	00000001 	udf	#1
    7bb8:	2ae00705 	orn	w5, w24, w0, ror #1
    7bbc:	00000001 	udf	#1
    7bc0:	2b000705 	adds	w5, w24, w0, lsl #1
    7bc4:	00000001 	udf	#1
    7bc8:	2b200705 	adds	w5, w24, w0, uxtb #1
    7bcc:	00000001 	udf	#1
    7bd0:	2b400705 	adds	w5, w24, w0, lsr #1
    7bd4:	00000001 	udf	#1
    7bd8:	2b600705 	.inst	0x2b600705 ; undefined
    7bdc:	00000001 	udf	#1
    7be0:	2b800705 	adds	w5, w24, w0, asr #1
    7be4:	00000001 	udf	#1
    7be8:	2ba00705 	.inst	0x2ba00705 ; undefined
    7bec:	00000001 	udf	#1
    7bf0:	2bc00705 	.inst	0x2bc00705 ; undefined
    7bf4:	00000001 	udf	#1
    7bf8:	2be00705 	.inst	0x2be00705 ; undefined
    7bfc:	00000001 	udf	#1
    7c00:	2c000705 	stnp	s5, s1, [x24]
    7c04:	00000001 	udf	#1
    7c08:	2c200705 	stnp	s5, s1, [x24, #-256]
    7c0c:	00000001 	udf	#1
    7c10:	2c400705 	ldnp	s5, s1, [x24]
    7c14:	00000001 	udf	#1
    7c18:	2c600705 	ldnp	s5, s1, [x24, #-256]
    7c1c:	00000001 	udf	#1
    7c20:	2c800705 	stp	s5, s1, [x24], #0
    7c24:	00000001 	udf	#1
    7c28:	2ca00705 	stp	s5, s1, [x24], #-256
    7c2c:	00000001 	udf	#1
    7c30:	2cc00705 	ldp	s5, s1, [x24], #0
    7c34:	00000001 	udf	#1
    7c38:	2ce00705 	ldp	s5, s1, [x24], #-256
    7c3c:	00000001 	udf	#1
    7c40:	2d000705 	stp	s5, s1, [x24]
    7c44:	00000001 	udf	#1
    7c48:	2d200705 	stp	s5, s1, [x24, #-256]
    7c4c:	00000001 	udf	#1
    7c50:	2d400705 	ldp	s5, s1, [x24]
    7c54:	00000001 	udf	#1
    7c58:	2d600705 	ldp	s5, s1, [x24, #-256]
    7c5c:	00000001 	udf	#1
    7c60:	2d800705 	stp	s5, s1, [x24, #0]!
    7c64:	00000001 	udf	#1
    7c68:	2da00705 	stp	s5, s1, [x24, #-256]!
    7c6c:	00000001 	udf	#1
    7c70:	2dc00705 	ldp	s5, s1, [x24, #0]!
    7c74:	00000001 	udf	#1
    7c78:	2de00705 	ldp	s5, s1, [x24, #-256]!
    7c7c:	00000001 	udf	#1
    7c80:	2e000705 	.inst	0x2e000705 ; undefined
    7c84:	00000001 	udf	#1
    7c88:	2e200705 	uhadd	v5.8b, v24.8b, v0.8b
    7c8c:	00000001 	udf	#1
    7c90:	2e400705 	fmaxnmp	v5.4h, v24.4h, v0.4h
    7c94:	00000001 	udf	#1
    7c98:	2e600705 	uhadd	v5.4h, v24.4h, v0.4h
    7c9c:	00000001 	udf	#1
    7ca0:	2e800705 	.inst	0x2e800705 ; undefined
    7ca4:	00000001 	udf	#1
    7ca8:	2ea00705 	uhadd	v5.2s, v24.2s, v0.2s
    7cac:	00000001 	udf	#1
    7cb0:	2ec00705 	fminnmp	v5.4h, v24.4h, v0.4h
    7cb4:	00000001 	udf	#1
    7cb8:	2ee00705 	.inst	0x2ee00705 ; undefined
    7cbc:	00000001 	udf	#1
    7cc0:	2f000705 	mvni	v5.2s, #0x18
    7cc4:	00000001 	udf	#1
    7cc8:	2f200705 	ushr	v5.2s, v24.2s, #32
    7ccc:	00000001 	udf	#1
    7cd0:	2f400705 	.inst	0x2f400705 ; undefined
    7cd4:	00000001 	udf	#1
    7cd8:	2f600705 	.inst	0x2f600705 ; undefined
    7cdc:	00000001 	udf	#1
    7ce0:	2f800705 	.inst	0x2f800705 ; undefined
    7ce4:	00000001 	udf	#1
    7ce8:	2fa00705 	.inst	0x2fa00705 ; undefined
    7cec:	00000001 	udf	#1
    7cf0:	2fc00705 	.inst	0x2fc00705 ; undefined
    7cf4:	00000001 	udf	#1
    7cf8:	2fe00705 	.inst	0x2fe00705 ; undefined
    7cfc:	00000001 	udf	#1
    7d00:	30000705 	adr	x5, 7de1 <MMUTableL2.2+0xce1>
    7d04:	00000001 	udf	#1
    7d08:	30200705 	adr	x5, 47de9 <__stack_end+0x31059>
    7d0c:	00000001 	udf	#1
    7d10:	30400705 	adr	x5, 87df1 <__stack_end+0x71061>
    7d14:	00000001 	udf	#1
    7d18:	30600705 	adr	x5, c7df9 <__stack_end+0xb1069>
    7d1c:	00000001 	udf	#1
    7d20:	30800705 	adr	x5, fffffffffff07e01 <DEVICE+0xff9ffffffff079f8>
    7d24:	00000001 	udf	#1
    7d28:	30a00705 	adr	x5, fffffffffff47e09 <DEVICE+0xff9ffffffff47a00>
    7d2c:	00000001 	udf	#1
    7d30:	30c00705 	adr	x5, fffffffffff87e11 <DEVICE+0xff9ffffffff87a08>
    7d34:	00000001 	udf	#1
    7d38:	30e00705 	adr	x5, fffffffffffc7e19 <DEVICE+0xff9ffffffffc7a10>
    7d3c:	00000001 	udf	#1
    7d40:	31000705 	adds	w5, w24, #0x1
    7d44:	00000001 	udf	#1
    7d48:	31200705 	adds	w5, w24, #0x801
    7d4c:	00000001 	udf	#1
    7d50:	31400705 	adds	w5, w24, #0x1, lsl #12
    7d54:	00000001 	udf	#1
    7d58:	31600705 	adds	w5, w24, #0x801, lsl #12
    7d5c:	00000001 	udf	#1
    7d60:	31800705 	.inst	0x31800705 ; undefined
    7d64:	00000001 	udf	#1
    7d68:	31a00705 	.inst	0x31a00705 ; undefined
    7d6c:	00000001 	udf	#1
    7d70:	31c00705 	.inst	0x31c00705 ; undefined
    7d74:	00000001 	udf	#1
    7d78:	31e00705 	.inst	0x31e00705 ; undefined
    7d7c:	00000001 	udf	#1
    7d80:	32000705 	orr	w5, w24, #0x3
    7d84:	00000001 	udf	#1
    7d88:	32200705 	orr	w5, w24, #0x3
    7d8c:	00000001 	udf	#1
    7d90:	32400705 	.inst	0x32400705 ; undefined
    7d94:	00000001 	udf	#1
    7d98:	32600705 	.inst	0x32600705 ; undefined
    7d9c:	00000001 	udf	#1
    7da0:	32800705 	.inst	0x32800705 ; undefined
    7da4:	00000001 	udf	#1
    7da8:	32a00705 	.inst	0x32a00705 ; undefined
    7dac:	00000001 	udf	#1
    7db0:	32c00705 	.inst	0x32c00705 ; undefined
    7db4:	00000001 	udf	#1
    7db8:	32e00705 	.inst	0x32e00705 ; undefined
    7dbc:	00000001 	udf	#1
    7dc0:	33000705 	bfxil	w5, w24, #0, #2
    7dc4:	00000001 	udf	#1
    7dc8:	33200705 	.inst	0x33200705 ; undefined
    7dcc:	00000001 	udf	#1
    7dd0:	33400705 	.inst	0x33400705 ; undefined
    7dd4:	00000001 	udf	#1
    7dd8:	33600705 	.inst	0x33600705 ; undefined
    7ddc:	00000001 	udf	#1
    7de0:	33800705 	.inst	0x33800705 ; undefined
    7de4:	00000001 	udf	#1
    7de8:	33a00705 	.inst	0x33a00705 ; undefined
    7dec:	00000001 	udf	#1
    7df0:	33c00705 	.inst	0x33c00705 ; undefined
    7df4:	00000001 	udf	#1
    7df8:	33e00705 	.inst	0x33e00705 ; undefined
    7dfc:	00000001 	udf	#1
    7e00:	34000705 	cbz	w5, 7ee0 <MMUTableL2.2+0xde0>
    7e04:	00000001 	udf	#1
    7e08:	34200705 	cbz	w5, 47ee8 <__stack_end+0x31158>
    7e0c:	00000001 	udf	#1
    7e10:	34400705 	cbz	w5, 87ef0 <__stack_end+0x71160>
    7e14:	00000001 	udf	#1
    7e18:	34600705 	cbz	w5, c7ef8 <__stack_end+0xb1168>
    7e1c:	00000001 	udf	#1
    7e20:	34800705 	cbz	w5, fffffffffff07f00 <DEVICE+0xff9ffffffff07af7>
    7e24:	00000001 	udf	#1
    7e28:	34a00705 	cbz	w5, fffffffffff47f08 <DEVICE+0xff9ffffffff47aff>
    7e2c:	00000001 	udf	#1
    7e30:	34c00705 	cbz	w5, fffffffffff87f10 <DEVICE+0xff9ffffffff87b07>
    7e34:	00000001 	udf	#1
    7e38:	34e00705 	cbz	w5, fffffffffffc7f18 <DEVICE+0xff9ffffffffc7b0f>
    7e3c:	00000001 	udf	#1
    7e40:	35000705 	cbnz	w5, 7f20 <MMUTableL2.2+0xe20>
    7e44:	00000001 	udf	#1
    7e48:	35200705 	cbnz	w5, 47f28 <__stack_end+0x31198>
    7e4c:	00000001 	udf	#1
    7e50:	35400705 	cbnz	w5, 87f30 <__stack_end+0x711a0>
    7e54:	00000001 	udf	#1
    7e58:	35600705 	cbnz	w5, c7f38 <__stack_end+0xb11a8>
    7e5c:	00000001 	udf	#1
    7e60:	35800705 	cbnz	w5, fffffffffff07f40 <DEVICE+0xff9ffffffff07b37>
    7e64:	00000001 	udf	#1
    7e68:	35a00705 	cbnz	w5, fffffffffff47f48 <DEVICE+0xff9ffffffff47b3f>
    7e6c:	00000001 	udf	#1
    7e70:	35c00705 	cbnz	w5, fffffffffff87f50 <DEVICE+0xff9ffffffff87b47>
    7e74:	00000001 	udf	#1
    7e78:	35e00705 	cbnz	w5, fffffffffffc7f58 <DEVICE+0xff9ffffffffc7b4f>
    7e7c:	00000001 	udf	#1
    7e80:	36000705 	tbz	w5, #0, 7f60 <MMUTableL2.2+0xe60>
    7e84:	00000001 	udf	#1
    7e88:	36200705 	tbz	w5, #4, 7f68 <MMUTableL2.2+0xe68>
    7e8c:	00000001 	udf	#1
    7e90:	36400705 	tbz	w5, #8, 7f70 <MMUTableL2.2+0xe70>
    7e94:	00000001 	udf	#1
    7e98:	36600705 	tbz	w5, #12, 7f78 <MMUTableL2.2+0xe78>
    7e9c:	00000001 	udf	#1
    7ea0:	36800705 	tbz	w5, #16, 7f80 <MMUTableL2.2+0xe80>
    7ea4:	00000001 	udf	#1
    7ea8:	36a00705 	tbz	w5, #20, 7f88 <MMUTableL2.2+0xe88>
    7eac:	00000001 	udf	#1
    7eb0:	36c00705 	tbz	w5, #24, 7f90 <MMUTableL2.2+0xe90>
    7eb4:	00000001 	udf	#1
    7eb8:	36e00705 	tbz	w5, #28, 7f98 <MMUTableL2.2+0xe98>
    7ebc:	00000001 	udf	#1
    7ec0:	37000705 	tbnz	w5, #0, 7fa0 <MMUTableL2.2+0xea0>
    7ec4:	00000001 	udf	#1
    7ec8:	37200705 	tbnz	w5, #4, 7fa8 <MMUTableL2.2+0xea8>
    7ecc:	00000001 	udf	#1
    7ed0:	37400705 	tbnz	w5, #8, 7fb0 <MMUTableL2.2+0xeb0>
    7ed4:	00000001 	udf	#1
    7ed8:	37600705 	tbnz	w5, #12, 7fb8 <MMUTableL2.2+0xeb8>
    7edc:	00000001 	udf	#1
    7ee0:	37800705 	tbnz	w5, #16, 7fc0 <MMUTableL2.2+0xec0>
    7ee4:	00000001 	udf	#1
    7ee8:	37a00705 	tbnz	w5, #20, 7fc8 <MMUTableL2.2+0xec8>
    7eec:	00000001 	udf	#1
    7ef0:	37c00705 	tbnz	w5, #24, 7fd0 <MMUTableL2.2+0xed0>
    7ef4:	00000001 	udf	#1
    7ef8:	37e00705 	tbnz	w5, #28, 7fd8 <MMUTableL2.2+0xed8>
    7efc:	00000001 	udf	#1
    7f00:	38000705 	strb	w5, [x24], #0
    7f04:	00000001 	udf	#1
    7f08:	38200705 	.inst	0x38200705 ; undefined
    7f0c:	00000001 	udf	#1
    7f10:	38400705 	ldrb	w5, [x24], #0
    7f14:	00000001 	udf	#1
    7f18:	38600705 	.inst	0x38600705 ; undefined
    7f1c:	00000001 	udf	#1
    7f20:	38800705 	ldrsb	x5, [x24], #0
    7f24:	00000001 	udf	#1
    7f28:	38a00705 	.inst	0x38a00705 ; undefined
    7f2c:	00000001 	udf	#1
    7f30:	38c00705 	ldrsb	w5, [x24], #0
    7f34:	00000001 	udf	#1
    7f38:	38e00705 	.inst	0x38e00705 ; undefined
    7f3c:	00000001 	udf	#1
    7f40:	39000705 	strb	w5, [x24, #1]
    7f44:	00000001 	udf	#1
    7f48:	39200705 	strb	w5, [x24, #2049]
    7f4c:	00000001 	udf	#1
    7f50:	39400705 	ldrb	w5, [x24, #1]
    7f54:	00000001 	udf	#1
    7f58:	39600705 	ldrb	w5, [x24, #2049]
    7f5c:	00000001 	udf	#1
    7f60:	39800705 	ldrsb	x5, [x24, #1]
    7f64:	00000001 	udf	#1
    7f68:	39a00705 	ldrsb	x5, [x24, #2049]
    7f6c:	00000001 	udf	#1
    7f70:	39c00705 	ldrsb	w5, [x24, #1]
    7f74:	00000001 	udf	#1
    7f78:	39e00705 	ldrsb	w5, [x24, #2049]
    7f7c:	00000001 	udf	#1
    7f80:	3a000705 	.inst	0x3a000705 ; undefined
    7f84:	00000001 	udf	#1
    7f88:	3a200705 	.inst	0x3a200705 ; undefined
    7f8c:	00000001 	udf	#1
    7f90:	3a400705 	.inst	0x3a400705 ; undefined
    7f94:	00000001 	udf	#1
    7f98:	3a600705 	.inst	0x3a600705 ; undefined
    7f9c:	00000001 	udf	#1
    7fa0:	3a800705 	.inst	0x3a800705 ; undefined
    7fa4:	00000001 	udf	#1
    7fa8:	3aa00705 	.inst	0x3aa00705 ; undefined
    7fac:	00000001 	udf	#1
    7fb0:	3ac00705 	.inst	0x3ac00705 ; undefined
    7fb4:	00000001 	udf	#1
    7fb8:	3ae00705 	.inst	0x3ae00705 ; undefined
    7fbc:	00000001 	udf	#1
    7fc0:	3b000705 	.inst	0x3b000705 ; undefined
    7fc4:	00000001 	udf	#1
    7fc8:	3b200705 	.inst	0x3b200705 ; undefined
    7fcc:	00000001 	udf	#1
    7fd0:	3b400705 	.inst	0x3b400705 ; undefined
    7fd4:	00000001 	udf	#1
    7fd8:	3b600705 	.inst	0x3b600705 ; undefined
    7fdc:	00000001 	udf	#1
    7fe0:	3b800705 	.inst	0x3b800705 ; undefined
    7fe4:	00000001 	udf	#1
    7fe8:	3ba00705 	.inst	0x3ba00705 ; undefined
    7fec:	00000001 	udf	#1
    7ff0:	3bc00705 	.inst	0x3bc00705 ; undefined
    7ff4:	00000001 	udf	#1
    7ff8:	3be00705 	.inst	0x3be00705 ; undefined
    7ffc:	00000001 	udf	#1
    8000:	3c000705 	str	b5, [x24], #0
    8004:	00000001 	udf	#1
    8008:	3c200705 	.inst	0x3c200705 ; undefined
    800c:	00000001 	udf	#1
    8010:	3c400705 	ldr	b5, [x24], #0
    8014:	00000001 	udf	#1
    8018:	3c600705 	.inst	0x3c600705 ; undefined
    801c:	00000001 	udf	#1
    8020:	3c800705 	str	q5, [x24], #0
    8024:	00000001 	udf	#1
    8028:	3ca00705 	.inst	0x3ca00705 ; undefined
    802c:	00000001 	udf	#1
    8030:	3cc00705 	ldr	q5, [x24], #0
    8034:	00000001 	udf	#1
    8038:	3ce00705 	.inst	0x3ce00705 ; undefined
    803c:	00000001 	udf	#1
    8040:	3d000705 	str	b5, [x24, #1]
    8044:	00000001 	udf	#1
    8048:	3d200705 	str	b5, [x24, #2049]
    804c:	00000001 	udf	#1
    8050:	3d400705 	ldr	b5, [x24, #1]
    8054:	00000001 	udf	#1
    8058:	3d600705 	ldr	b5, [x24, #2049]
    805c:	00000001 	udf	#1
    8060:	3d800705 	str	q5, [x24, #16]
    8064:	00000001 	udf	#1
    8068:	3da00705 	str	q5, [x24, #32784]
    806c:	00000001 	udf	#1
    8070:	3dc00705 	ldr	q5, [x24, #16]
    8074:	00000001 	udf	#1
    8078:	3de00705 	ldr	q5, [x24, #32784]
    807c:	00000001 	udf	#1
    8080:	3e000705 	.inst	0x3e000705 ; undefined
    8084:	00000001 	udf	#1
    8088:	3e200705 	.inst	0x3e200705 ; undefined
    808c:	00000001 	udf	#1
    8090:	3e400705 	.inst	0x3e400705 ; undefined
    8094:	00000001 	udf	#1
    8098:	3e600705 	.inst	0x3e600705 ; undefined
    809c:	00000001 	udf	#1
    80a0:	3e800705 	.inst	0x3e800705 ; undefined
    80a4:	00000001 	udf	#1
    80a8:	3ea00705 	.inst	0x3ea00705 ; undefined
    80ac:	00000001 	udf	#1
    80b0:	3ec00705 	.inst	0x3ec00705 ; undefined
    80b4:	00000001 	udf	#1
    80b8:	3ee00705 	.inst	0x3ee00705 ; undefined
    80bc:	00000001 	udf	#1
    80c0:	3f000705 	.inst	0x3f000705 ; undefined
    80c4:	00000001 	udf	#1
    80c8:	3f200705 	.inst	0x3f200705 ; undefined
    80cc:	00000001 	udf	#1
    80d0:	3f400705 	.inst	0x3f400705 ; undefined
    80d4:	00000001 	udf	#1
    80d8:	3f600705 	.inst	0x3f600705 ; undefined
    80dc:	00000001 	udf	#1
    80e0:	3f800705 	.inst	0x3f800705 ; undefined
    80e4:	00000001 	udf	#1
    80e8:	3fa00705 	.inst	0x3fa00705 ; undefined
    80ec:	00000001 	udf	#1
    80f0:	3fc00705 	.inst	0x3fc00705 ; undefined
    80f4:	00000001 	udf	#1
    80f8:	3fe00705 	.inst	0x3fe00705 ; undefined
    80fc:	00000001 	udf	#1
    8100:	40000705 	.inst	0x40000705 ; undefined
    8104:	00000001 	udf	#1
    8108:	40200705 	.inst	0x40200705 ; undefined
    810c:	00000001 	udf	#1
    8110:	40400705 	.inst	0x40400705 ; undefined
    8114:	00000001 	udf	#1
    8118:	40600705 	.inst	0x40600705 ; undefined
    811c:	00000001 	udf	#1
    8120:	40800705 	.inst	0x40800705 ; undefined
    8124:	00000001 	udf	#1
    8128:	40a00705 	.inst	0x40a00705 ; undefined
    812c:	00000001 	udf	#1
    8130:	40c00705 	.inst	0x40c00705 ; undefined
    8134:	00000001 	udf	#1
    8138:	40e00705 	.inst	0x40e00705 ; undefined
    813c:	00000001 	udf	#1
    8140:	41000705 	.inst	0x41000705 ; undefined
    8144:	00000001 	udf	#1
    8148:	41200705 	.inst	0x41200705 ; undefined
    814c:	00000001 	udf	#1
    8150:	41400705 	.inst	0x41400705 ; undefined
    8154:	00000001 	udf	#1
    8158:	41600705 	.inst	0x41600705 ; undefined
    815c:	00000001 	udf	#1
    8160:	41800705 	.inst	0x41800705 ; undefined
    8164:	00000001 	udf	#1
    8168:	41a00705 	.inst	0x41a00705 ; undefined
    816c:	00000001 	udf	#1
    8170:	41c00705 	.inst	0x41c00705 ; undefined
    8174:	00000001 	udf	#1
    8178:	41e00705 	.inst	0x41e00705 ; undefined
    817c:	00000001 	udf	#1
    8180:	42000705 	.inst	0x42000705 ; undefined
    8184:	00000001 	udf	#1
    8188:	42200705 	.inst	0x42200705 ; undefined
    818c:	00000001 	udf	#1
    8190:	42400705 	.inst	0x42400705 ; undefined
    8194:	00000001 	udf	#1
    8198:	42600705 	.inst	0x42600705 ; undefined
    819c:	00000001 	udf	#1
    81a0:	42800705 	.inst	0x42800705 ; undefined
    81a4:	00000001 	udf	#1
    81a8:	42a00705 	.inst	0x42a00705 ; undefined
    81ac:	00000001 	udf	#1
    81b0:	42c00705 	.inst	0x42c00705 ; undefined
    81b4:	00000001 	udf	#1
    81b8:	42e00705 	.inst	0x42e00705 ; undefined
    81bc:	00000001 	udf	#1
    81c0:	43000705 	.inst	0x43000705 ; undefined
    81c4:	00000001 	udf	#1
    81c8:	43200705 	.inst	0x43200705 ; undefined
    81cc:	00000001 	udf	#1
    81d0:	43400705 	.inst	0x43400705 ; undefined
    81d4:	00000001 	udf	#1
    81d8:	43600705 	.inst	0x43600705 ; undefined
    81dc:	00000001 	udf	#1
    81e0:	43800705 	.inst	0x43800705 ; undefined
    81e4:	00000001 	udf	#1
    81e8:	43a00705 	.inst	0x43a00705 ; undefined
    81ec:	00000001 	udf	#1
    81f0:	43c00705 	.inst	0x43c00705 ; undefined
    81f4:	00000001 	udf	#1
    81f8:	43e00705 	.inst	0x43e00705 ; undefined
    81fc:	00000001 	udf	#1
    8200:	44000705 	.inst	0x44000705 ; undefined
    8204:	00000001 	udf	#1
    8208:	44200705 	.inst	0x44200705 ; undefined
    820c:	00000001 	udf	#1
    8210:	44400705 	.inst	0x44400705 ; undefined
    8214:	00000001 	udf	#1
    8218:	44600705 	.inst	0x44600705 ; undefined
    821c:	00000001 	udf	#1
    8220:	44800705 	udot	z5.s, z24.b, z0.b
    8224:	00000001 	udf	#1
    8228:	44a00705 	udot	z5.s, z24.b, z0.b[0]
    822c:	00000001 	udf	#1
    8230:	44c00705 	udot	z5.d, z24.h, z0.h
    8234:	00000001 	udf	#1
    8238:	44e00705 	udot	z5.d, z24.h, z0.h[0]
    823c:	00000001 	udf	#1
    8240:	45000705 	.inst	0x45000705 ; undefined
    8244:	00000001 	udf	#1
    8248:	45200705 	.inst	0x45200705 ; undefined
    824c:	00000001 	udf	#1
    8250:	45400705 	saddlt	z5.h, z24.b, z0.b
    8254:	00000001 	udf	#1
    8258:	45600705 	sqshrunt	z5.s, z24.d, #32
    825c:	00000001 	udf	#1
    8260:	45800705 	saddlt	z5.s, z24.h, z0.h
    8264:	00000001 	udf	#1
    8268:	45a00705 	.inst	0x45a00705 ; undefined
    826c:	00000001 	udf	#1
    8270:	45c00705 	saddlt	z5.d, z24.s, z0.s
    8274:	00000001 	udf	#1
    8278:	45e00705 	.inst	0x45e00705 ; undefined
    827c:	00000001 	udf	#1
    8280:	46000705 	.inst	0x46000705 ; undefined
    8284:	00000001 	udf	#1
    8288:	46200705 	.inst	0x46200705 ; undefined
    828c:	00000001 	udf	#1
    8290:	46400705 	.inst	0x46400705 ; undefined
    8294:	00000001 	udf	#1
    8298:	46600705 	.inst	0x46600705 ; undefined
    829c:	00000001 	udf	#1
    82a0:	46800705 	.inst	0x46800705 ; undefined
    82a4:	00000001 	udf	#1
    82a8:	46a00705 	.inst	0x46a00705 ; undefined
    82ac:	00000001 	udf	#1
    82b0:	46c00705 	.inst	0x46c00705 ; undefined
    82b4:	00000001 	udf	#1
    82b8:	46e00705 	.inst	0x46e00705 ; undefined
    82bc:	00000001 	udf	#1
    82c0:	47000705 	.inst	0x47000705 ; undefined
    82c4:	00000001 	udf	#1
    82c8:	47200705 	.inst	0x47200705 ; undefined
    82cc:	00000001 	udf	#1
    82d0:	47400705 	.inst	0x47400705 ; undefined
    82d4:	00000001 	udf	#1
    82d8:	47600705 	.inst	0x47600705 ; undefined
    82dc:	00000001 	udf	#1
    82e0:	47800705 	.inst	0x47800705 ; undefined
    82e4:	00000001 	udf	#1
    82e8:	47a00705 	.inst	0x47a00705 ; undefined
    82ec:	00000001 	udf	#1
    82f0:	47c00705 	.inst	0x47c00705 ; undefined
    82f4:	00000001 	udf	#1
    82f8:	47e00705 	.inst	0x47e00705 ; undefined
    82fc:	00000001 	udf	#1
    8300:	48000705 	stxrh	w0, w5, [x24]
    8304:	00000001 	udf	#1
    8308:	48200705 	.inst	0x48200705 ; undefined
    830c:	00000001 	udf	#1
    8310:	48400705 	ldxrh	w5, [x24]
    8314:	00000001 	udf	#1
    8318:	48600705 	.inst	0x48600705 ; undefined
    831c:	00000001 	udf	#1
    8320:	48800705 	stllrh	w5, [x24]
    8324:	00000001 	udf	#1
    8328:	48a00705 	.inst	0x48a00705 ; undefined
    832c:	00000001 	udf	#1
    8330:	48c00705 	ldlarh	w5, [x24]
    8334:	00000001 	udf	#1
    8338:	48e00705 	.inst	0x48e00705 ; undefined
    833c:	00000001 	udf	#1
    8340:	49000705 	.inst	0x49000705 ; undefined
    8344:	00000001 	udf	#1
    8348:	49200705 	.inst	0x49200705 ; undefined
    834c:	00000001 	udf	#1
    8350:	49400705 	.inst	0x49400705 ; undefined
    8354:	00000001 	udf	#1
    8358:	49600705 	.inst	0x49600705 ; undefined
    835c:	00000001 	udf	#1
    8360:	49800705 	.inst	0x49800705 ; undefined
    8364:	00000001 	udf	#1
    8368:	49a00705 	.inst	0x49a00705 ; undefined
    836c:	00000001 	udf	#1
    8370:	49c00705 	.inst	0x49c00705 ; undefined
    8374:	00000001 	udf	#1
    8378:	49e00705 	.inst	0x49e00705 ; undefined
    837c:	00000001 	udf	#1
    8380:	4a000705 	eor	w5, w24, w0, lsl #1
    8384:	00000001 	udf	#1
    8388:	4a200705 	eon	w5, w24, w0, lsl #1
    838c:	00000001 	udf	#1
    8390:	4a400705 	eor	w5, w24, w0, lsr #1
    8394:	00000001 	udf	#1
    8398:	4a600705 	eon	w5, w24, w0, lsr #1
    839c:	00000001 	udf	#1
    83a0:	4a800705 	eor	w5, w24, w0, asr #1
    83a4:	00000001 	udf	#1
    83a8:	4aa00705 	eon	w5, w24, w0, asr #1
    83ac:	00000001 	udf	#1
    83b0:	4ac00705 	eor	w5, w24, w0, ror #1
    83b4:	00000001 	udf	#1
    83b8:	4ae00705 	eon	w5, w24, w0, ror #1
    83bc:	00000001 	udf	#1
    83c0:	4b000705 	sub	w5, w24, w0, lsl #1
    83c4:	00000001 	udf	#1
    83c8:	4b200705 	sub	w5, w24, w0, uxtb #1
    83cc:	00000001 	udf	#1
    83d0:	4b400705 	sub	w5, w24, w0, lsr #1
    83d4:	00000001 	udf	#1
    83d8:	4b600705 	.inst	0x4b600705 ; undefined
    83dc:	00000001 	udf	#1
    83e0:	4b800705 	sub	w5, w24, w0, asr #1
    83e4:	00000001 	udf	#1
    83e8:	4ba00705 	.inst	0x4ba00705 ; undefined
    83ec:	00000001 	udf	#1
    83f0:	4bc00705 	.inst	0x4bc00705 ; undefined
    83f4:	00000001 	udf	#1
    83f8:	4be00705 	.inst	0x4be00705 ; undefined
    83fc:	00000001 	udf	#1
    8400:	4c000705 	st4	{v5.8h-v8.8h}, [x24]
    8404:	00000001 	udf	#1
    8408:	4c200705 	.inst	0x4c200705 ; undefined
    840c:	00000001 	udf	#1
    8410:	4c400705 	ld4	{v5.8h-v8.8h}, [x24]
    8414:	00000001 	udf	#1
    8418:	4c600705 	.inst	0x4c600705 ; undefined
    841c:	00000001 	udf	#1
    8420:	4c800705 	st4	{v5.8h-v8.8h}, [x24], x0
    8424:	00000001 	udf	#1
    8428:	4ca00705 	.inst	0x4ca00705 ; undefined
    842c:	00000001 	udf	#1
    8430:	4cc00705 	ld4	{v5.8h-v8.8h}, [x24], x0
    8434:	00000001 	udf	#1
    8438:	4ce00705 	.inst	0x4ce00705 ; undefined
    843c:	00000001 	udf	#1
    8440:	4d000705 	st1	{v5.b}[9], [x24]
    8444:	00000001 	udf	#1
    8448:	4d200705 	st2	{v5.b-v6.b}[9], [x24]
    844c:	00000001 	udf	#1
    8450:	4d400705 	ld1	{v5.b}[9], [x24]
    8454:	00000001 	udf	#1
    8458:	4d600705 	ld2	{v5.b-v6.b}[9], [x24]
    845c:	00000001 	udf	#1
    8460:	4d800705 	st1	{v5.b}[9], [x24], x0
    8464:	00000001 	udf	#1
    8468:	4da00705 	st2	{v5.b-v6.b}[9], [x24], x0
    846c:	00000001 	udf	#1
    8470:	4dc00705 	ld1	{v5.b}[9], [x24], x0
    8474:	00000001 	udf	#1
    8478:	4de00705 	ld2	{v5.b-v6.b}[9], [x24], x0
    847c:	00000001 	udf	#1
    8480:	4e000705 	.inst	0x4e000705 ; undefined
    8484:	00000001 	udf	#1
    8488:	4e200705 	shadd	v5.16b, v24.16b, v0.16b
    848c:	00000001 	udf	#1
    8490:	4e400705 	fmaxnm	v5.8h, v24.8h, v0.8h
    8494:	00000001 	udf	#1
    8498:	4e600705 	shadd	v5.8h, v24.8h, v0.8h
    849c:	00000001 	udf	#1
    84a0:	4e800705 	.inst	0x4e800705 ; undefined
    84a4:	00000001 	udf	#1
    84a8:	4ea00705 	shadd	v5.4s, v24.4s, v0.4s
    84ac:	00000001 	udf	#1
    84b0:	4ec00705 	fminnm	v5.8h, v24.8h, v0.8h
    84b4:	00000001 	udf	#1
    84b8:	4ee00705 	.inst	0x4ee00705 ; undefined
    84bc:	00000001 	udf	#1
    84c0:	4f000705 	movi	v5.4s, #0x18
    84c4:	00000001 	udf	#1
    84c8:	4f200705 	sshr	v5.4s, v24.4s, #32
    84cc:	00000001 	udf	#1
    84d0:	4f400705 	sshr	v5.2d, v24.2d, #64
    84d4:	00000001 	udf	#1
    84d8:	4f600705 	sshr	v5.2d, v24.2d, #32
    84dc:	00000001 	udf	#1
    84e0:	4f800705 	.inst	0x4f800705 ; undefined
    84e4:	00000001 	udf	#1
    84e8:	4fa00705 	.inst	0x4fa00705 ; undefined
    84ec:	00000001 	udf	#1
    84f0:	4fc00705 	.inst	0x4fc00705 ; undefined
    84f4:	00000001 	udf	#1
    84f8:	4fe00705 	.inst	0x4fe00705 ; undefined
    84fc:	00000001 	udf	#1
    8500:	50000705 	adr	x5, 85e2 <MMUTableL2.2+0x14e2>
    8504:	00000001 	udf	#1
    8508:	50200705 	adr	x5, 485ea <__stack_end+0x3185a>
    850c:	00000001 	udf	#1
    8510:	50400705 	adr	x5, 885f2 <__stack_end+0x71862>
    8514:	00000001 	udf	#1
    8518:	50600705 	adr	x5, c85fa <__stack_end+0xb186a>
    851c:	00000001 	udf	#1
    8520:	50800705 	adr	x5, fffffffffff08602 <DEVICE+0xff9ffffffff081f9>
    8524:	00000001 	udf	#1
    8528:	50a00705 	adr	x5, fffffffffff4860a <DEVICE+0xff9ffffffff48201>
    852c:	00000001 	udf	#1
    8530:	50c00705 	adr	x5, fffffffffff88612 <DEVICE+0xff9ffffffff88209>
    8534:	00000001 	udf	#1
    8538:	50e00705 	adr	x5, fffffffffffc861a <DEVICE+0xff9ffffffffc8211>
    853c:	00000001 	udf	#1
    8540:	51000705 	sub	w5, w24, #0x1
    8544:	00000001 	udf	#1
    8548:	51200705 	sub	w5, w24, #0x801
    854c:	00000001 	udf	#1
    8550:	51400705 	sub	w5, w24, #0x1, lsl #12
    8554:	00000001 	udf	#1
    8558:	51600705 	sub	w5, w24, #0x801, lsl #12
    855c:	00000001 	udf	#1
    8560:	51800705 	.inst	0x51800705 ; undefined
    8564:	00000001 	udf	#1
    8568:	51a00705 	.inst	0x51a00705 ; undefined
    856c:	00000001 	udf	#1
    8570:	51c00705 	.inst	0x51c00705 ; undefined
    8574:	00000001 	udf	#1
    8578:	51e00705 	.inst	0x51e00705 ; undefined
    857c:	00000001 	udf	#1
    8580:	52000705 	eor	w5, w24, #0x3
    8584:	00000001 	udf	#1
    8588:	52200705 	eor	w5, w24, #0x3
    858c:	00000001 	udf	#1
    8590:	52400705 	.inst	0x52400705 ; undefined
    8594:	00000001 	udf	#1
    8598:	52600705 	.inst	0x52600705 ; undefined
    859c:	00000001 	udf	#1
    85a0:	52800705 	mov	w5, #0x38                  	// #56
    85a4:	00000001 	udf	#1
    85a8:	52a00705 	mov	w5, #0x380000              	// #3670016
    85ac:	00000001 	udf	#1
    85b0:	52c00705 	.inst	0x52c00705 ; undefined
    85b4:	00000001 	udf	#1
    85b8:	52e00705 	.inst	0x52e00705 ; undefined
    85bc:	00000001 	udf	#1
    85c0:	53000705 	ubfx	w5, w24, #0, #2
    85c4:	00000001 	udf	#1
    85c8:	53200705 	.inst	0x53200705 ; undefined
    85cc:	00000001 	udf	#1
    85d0:	53400705 	.inst	0x53400705 ; undefined
    85d4:	00000001 	udf	#1
    85d8:	53600705 	.inst	0x53600705 ; undefined
    85dc:	00000001 	udf	#1
    85e0:	53800705 	.inst	0x53800705 ; undefined
    85e4:	00000001 	udf	#1
    85e8:	53a00705 	.inst	0x53a00705 ; undefined
    85ec:	00000001 	udf	#1
    85f0:	53c00705 	.inst	0x53c00705 ; undefined
    85f4:	00000001 	udf	#1
    85f8:	53e00705 	.inst	0x53e00705 ; undefined
    85fc:	00000001 	udf	#1
    8600:	54000705 	b.pl	86e0 <MMUTableL2.2+0x15e0>  // b.nfrst
    8604:	00000001 	udf	#1
    8608:	54200705 	b.pl	486e8 <__stack_end+0x31958>  // b.nfrst
    860c:	00000001 	udf	#1
    8610:	54400705 	b.pl	886f0 <__stack_end+0x71960>  // b.nfrst
    8614:	00000001 	udf	#1
    8618:	54600705 	b.pl	c86f8 <__stack_end+0xb1968>  // b.nfrst
    861c:	00000001 	udf	#1
    8620:	54800705 	b.pl	fffffffffff08700 <DEVICE+0xff9ffffffff082f7>  // b.nfrst
    8624:	00000001 	udf	#1
    8628:	54a00705 	b.pl	fffffffffff48708 <DEVICE+0xff9ffffffff482ff>  // b.nfrst
    862c:	00000001 	udf	#1
    8630:	54c00705 	b.pl	fffffffffff88710 <DEVICE+0xff9ffffffff88307>  // b.nfrst
    8634:	00000001 	udf	#1
    8638:	54e00705 	b.pl	fffffffffffc8718 <DEVICE+0xff9ffffffffc830f>  // b.nfrst
    863c:	00000001 	udf	#1
    8640:	55000705 	.inst	0x55000705 ; undefined
    8644:	00000001 	udf	#1
    8648:	55200705 	.inst	0x55200705 ; undefined
    864c:	00000001 	udf	#1
    8650:	55400705 	.inst	0x55400705 ; undefined
    8654:	00000001 	udf	#1
    8658:	55600705 	.inst	0x55600705 ; undefined
    865c:	00000001 	udf	#1
    8660:	55800705 	.inst	0x55800705 ; undefined
    8664:	00000001 	udf	#1
    8668:	55a00705 	.inst	0x55a00705 ; undefined
    866c:	00000001 	udf	#1
    8670:	55c00705 	.inst	0x55c00705 ; undefined
    8674:	00000001 	udf	#1
    8678:	55e00705 	.inst	0x55e00705 ; undefined
    867c:	00000001 	udf	#1
    8680:	56000705 	.inst	0x56000705 ; undefined
    8684:	00000001 	udf	#1
    8688:	56200705 	.inst	0x56200705 ; undefined
    868c:	00000001 	udf	#1
    8690:	56400705 	.inst	0x56400705 ; undefined
    8694:	00000001 	udf	#1
    8698:	56600705 	.inst	0x56600705 ; undefined
    869c:	00000001 	udf	#1
    86a0:	56800705 	.inst	0x56800705 ; undefined
    86a4:	00000001 	udf	#1
    86a8:	56a00705 	.inst	0x56a00705 ; undefined
    86ac:	00000001 	udf	#1
    86b0:	56c00705 	.inst	0x56c00705 ; undefined
    86b4:	00000001 	udf	#1
    86b8:	56e00705 	.inst	0x56e00705 ; undefined
    86bc:	00000001 	udf	#1
    86c0:	57000705 	.inst	0x57000705 ; undefined
    86c4:	00000001 	udf	#1
    86c8:	57200705 	.inst	0x57200705 ; undefined
    86cc:	00000001 	udf	#1
    86d0:	57400705 	.inst	0x57400705 ; undefined
    86d4:	00000001 	udf	#1
    86d8:	57600705 	.inst	0x57600705 ; undefined
    86dc:	00000001 	udf	#1
    86e0:	57800705 	.inst	0x57800705 ; undefined
    86e4:	00000001 	udf	#1
    86e8:	57a00705 	.inst	0x57a00705 ; undefined
    86ec:	00000001 	udf	#1
    86f0:	57c00705 	.inst	0x57c00705 ; undefined
    86f4:	00000001 	udf	#1
    86f8:	57e00705 	.inst	0x57e00705 ; undefined
    86fc:	00000001 	udf	#1
    8700:	58000705 	ldr	x5, 87e0 <MMUTableL2.2+0x16e0>
    8704:	00000001 	udf	#1
    8708:	58200705 	ldr	x5, 487e8 <__stack_end+0x31a58>
    870c:	00000001 	udf	#1
    8710:	58400705 	ldr	x5, 887f0 <__stack_end+0x71a60>
    8714:	00000001 	udf	#1
    8718:	58600705 	ldr	x5, c87f8 <__stack_end+0xb1a68>
    871c:	00000001 	udf	#1
    8720:	58800705 	ldr	x5, fffffffffff08800 <DEVICE+0xff9ffffffff083f7>
    8724:	00000001 	udf	#1
    8728:	58a00705 	ldr	x5, fffffffffff48808 <DEVICE+0xff9ffffffff483ff>
    872c:	00000001 	udf	#1
    8730:	58c00705 	ldr	x5, fffffffffff88810 <DEVICE+0xff9ffffffff88407>
    8734:	00000001 	udf	#1
    8738:	58e00705 	ldr	x5, fffffffffffc8818 <DEVICE+0xff9ffffffffc840f>
    873c:	00000001 	udf	#1
    8740:	59000705 	.inst	0x59000705 ; undefined
    8744:	00000001 	udf	#1
    8748:	59200705 	.inst	0x59200705 ; undefined
    874c:	00000001 	udf	#1
    8750:	59400705 	.inst	0x59400705 ; undefined
    8754:	00000001 	udf	#1
    8758:	59600705 	.inst	0x59600705 ; undefined
    875c:	00000001 	udf	#1
    8760:	59800705 	.inst	0x59800705 ; undefined
    8764:	00000001 	udf	#1
    8768:	59a00705 	.inst	0x59a00705 ; undefined
    876c:	00000001 	udf	#1
    8770:	59c00705 	.inst	0x59c00705 ; undefined
    8774:	00000001 	udf	#1
    8778:	59e00705 	.inst	0x59e00705 ; undefined
    877c:	00000001 	udf	#1
    8780:	5a000705 	.inst	0x5a000705 ; undefined
    8784:	00000001 	udf	#1
    8788:	5a200705 	.inst	0x5a200705 ; undefined
    878c:	00000001 	udf	#1
    8790:	5a400705 	.inst	0x5a400705 ; undefined
    8794:	00000001 	udf	#1
    8798:	5a600705 	.inst	0x5a600705 ; undefined
    879c:	00000001 	udf	#1
    87a0:	5a800705 	csneg	w5, w24, w0, eq	// eq = none
    87a4:	00000001 	udf	#1
    87a8:	5aa00705 	.inst	0x5aa00705 ; undefined
    87ac:	00000001 	udf	#1
    87b0:	5ac00705 	rev16	w5, w24
    87b4:	00000001 	udf	#1
    87b8:	5ae00705 	.inst	0x5ae00705 ; undefined
    87bc:	00000001 	udf	#1
    87c0:	5b000705 	.inst	0x5b000705 ; undefined
    87c4:	00000001 	udf	#1
    87c8:	5b200705 	.inst	0x5b200705 ; undefined
    87cc:	00000001 	udf	#1
    87d0:	5b400705 	.inst	0x5b400705 ; undefined
    87d4:	00000001 	udf	#1
    87d8:	5b600705 	.inst	0x5b600705 ; undefined
    87dc:	00000001 	udf	#1
    87e0:	5b800705 	.inst	0x5b800705 ; undefined
    87e4:	00000001 	udf	#1
    87e8:	5ba00705 	.inst	0x5ba00705 ; undefined
    87ec:	00000001 	udf	#1
    87f0:	5bc00705 	.inst	0x5bc00705 ; undefined
    87f4:	00000001 	udf	#1
    87f8:	5be00705 	.inst	0x5be00705 ; undefined
    87fc:	00000001 	udf	#1
    8800:	5c000705 	ldr	d5, 88e0 <MMUTableL2.2+0x17e0>
    8804:	00000001 	udf	#1
    8808:	5c200705 	ldr	d5, 488e8 <__stack_end+0x31b58>
    880c:	00000001 	udf	#1
    8810:	5c400705 	ldr	d5, 888f0 <__stack_end+0x71b60>
    8814:	00000001 	udf	#1
    8818:	5c600705 	ldr	d5, c88f8 <__stack_end+0xb1b68>
    881c:	00000001 	udf	#1
    8820:	5c800705 	ldr	d5, fffffffffff08900 <DEVICE+0xff9ffffffff084f7>
    8824:	00000001 	udf	#1
    8828:	5ca00705 	ldr	d5, fffffffffff48908 <DEVICE+0xff9ffffffff484ff>
    882c:	00000001 	udf	#1
    8830:	5cc00705 	ldr	d5, fffffffffff88910 <DEVICE+0xff9ffffffff88507>
    8834:	00000001 	udf	#1
    8838:	5ce00705 	ldr	d5, fffffffffffc8918 <DEVICE+0xff9ffffffffc850f>
    883c:	00000001 	udf	#1
    8840:	5d000705 	.inst	0x5d000705 ; undefined
    8844:	00000001 	udf	#1
    8848:	5d200705 	.inst	0x5d200705 ; undefined
    884c:	00000001 	udf	#1
    8850:	5d400705 	.inst	0x5d400705 ; undefined
    8854:	00000001 	udf	#1
    8858:	5d600705 	.inst	0x5d600705 ; undefined
    885c:	00000001 	udf	#1
    8860:	5d800705 	.inst	0x5d800705 ; undefined
    8864:	00000001 	udf	#1
    8868:	5da00705 	.inst	0x5da00705 ; undefined
    886c:	00000001 	udf	#1
    8870:	5dc00705 	.inst	0x5dc00705 ; undefined
    8874:	00000001 	udf	#1
    8878:	5de00705 	.inst	0x5de00705 ; undefined
    887c:	00000001 	udf	#1
    8880:	5e000705 	.inst	0x5e000705 ; undefined
    8884:	00000001 	udf	#1
    8888:	5e200705 	.inst	0x5e200705 ; undefined
    888c:	00000001 	udf	#1
    8890:	5e400705 	.inst	0x5e400705 ; undefined
    8894:	00000001 	udf	#1
    8898:	5e600705 	.inst	0x5e600705 ; undefined
    889c:	00000001 	udf	#1
    88a0:	5e800705 	.inst	0x5e800705 ; undefined
    88a4:	00000001 	udf	#1
    88a8:	5ea00705 	.inst	0x5ea00705 ; undefined
    88ac:	00000001 	udf	#1
    88b0:	5ec00705 	.inst	0x5ec00705 ; undefined
    88b4:	00000001 	udf	#1
    88b8:	5ee00705 	.inst	0x5ee00705 ; undefined
    88bc:	00000001 	udf	#1
    88c0:	5f000705 	.inst	0x5f000705 ; undefined
    88c4:	00000001 	udf	#1
    88c8:	5f200705 	.inst	0x5f200705 ; undefined
    88cc:	00000001 	udf	#1
    88d0:	5f400705 	sshr	d5, d24, #64
    88d4:	00000001 	udf	#1
    88d8:	5f600705 	sshr	d5, d24, #32
    88dc:	00000001 	udf	#1
    88e0:	5f800705 	.inst	0x5f800705 ; undefined
    88e4:	00000001 	udf	#1
    88e8:	5fa00705 	.inst	0x5fa00705 ; undefined
    88ec:	00000001 	udf	#1
    88f0:	5fc00705 	.inst	0x5fc00705 ; undefined
    88f4:	00000001 	udf	#1
    88f8:	5fe00705 	.inst	0x5fe00705 ; undefined
    88fc:	00000001 	udf	#1
    8900:	60000705 	.inst	0x60000705 ; undefined
    8904:	00000001 	udf	#1
    8908:	60200705 	.inst	0x60200705 ; undefined
    890c:	00000001 	udf	#1
    8910:	60400705 	.inst	0x60400705 ; undefined
    8914:	00000001 	udf	#1
    8918:	60600705 	.inst	0x60600705 ; undefined
    891c:	00000001 	udf	#1
    8920:	60800705 	.inst	0x60800705 ; undefined
    8924:	00000001 	udf	#1
    8928:	60a00705 	.inst	0x60a00705 ; undefined
    892c:	00000001 	udf	#1
    8930:	60c00705 	.inst	0x60c00705 ; undefined
    8934:	00000001 	udf	#1
    8938:	60e00705 	.inst	0x60e00705 ; undefined
    893c:	00000001 	udf	#1
    8940:	61000705 	.inst	0x61000705 ; undefined
    8944:	00000001 	udf	#1
    8948:	61200705 	.inst	0x61200705 ; undefined
    894c:	00000001 	udf	#1
    8950:	61400705 	.inst	0x61400705 ; undefined
    8954:	00000001 	udf	#1
    8958:	61600705 	.inst	0x61600705 ; undefined
    895c:	00000001 	udf	#1
    8960:	61800705 	.inst	0x61800705 ; undefined
    8964:	00000001 	udf	#1
    8968:	61a00705 	.inst	0x61a00705 ; undefined
    896c:	00000001 	udf	#1
    8970:	61c00705 	.inst	0x61c00705 ; undefined
    8974:	00000001 	udf	#1
    8978:	61e00705 	.inst	0x61e00705 ; undefined
    897c:	00000001 	udf	#1
    8980:	62000705 	.inst	0x62000705 ; undefined
    8984:	00000001 	udf	#1
    8988:	62200705 	.inst	0x62200705 ; undefined
    898c:	00000001 	udf	#1
    8990:	62400705 	.inst	0x62400705 ; undefined
    8994:	00000001 	udf	#1
    8998:	62600705 	.inst	0x62600705 ; undefined
    899c:	00000001 	udf	#1
    89a0:	62800705 	.inst	0x62800705 ; undefined
    89a4:	00000001 	udf	#1
    89a8:	62a00705 	.inst	0x62a00705 ; undefined
    89ac:	00000001 	udf	#1
    89b0:	62c00705 	.inst	0x62c00705 ; undefined
    89b4:	00000001 	udf	#1
    89b8:	62e00705 	.inst	0x62e00705 ; undefined
    89bc:	00000001 	udf	#1
    89c0:	63000705 	.inst	0x63000705 ; undefined
    89c4:	00000001 	udf	#1
    89c8:	63200705 	.inst	0x63200705 ; undefined
    89cc:	00000001 	udf	#1
    89d0:	63400705 	.inst	0x63400705 ; undefined
    89d4:	00000001 	udf	#1
    89d8:	63600705 	.inst	0x63600705 ; undefined
    89dc:	00000001 	udf	#1
    89e0:	63800705 	.inst	0x63800705 ; undefined
    89e4:	00000001 	udf	#1
    89e8:	63a00705 	.inst	0x63a00705 ; undefined
    89ec:	00000001 	udf	#1
    89f0:	63c00705 	.inst	0x63c00705 ; undefined
    89f4:	00000001 	udf	#1
    89f8:	63e00705 	.inst	0x63e00705 ; undefined
    89fc:	00000001 	udf	#1
    8a00:	64000705 	.inst	0x64000705 ; undefined
    8a04:	00000001 	udf	#1
    8a08:	64200705 	fmls	z5.h, z24.h, z0.h[0]
    8a0c:	00000001 	udf	#1
    8a10:	64400705 	fcmla	z5.h, p1/m, z24.h, z0.h, #0
    8a14:	00000001 	udf	#1
    8a18:	64600705 	fmls	z5.h, z24.h, z0.h[4]
    8a1c:	00000001 	udf	#1
    8a20:	64800705 	fcmla	z5.s, p1/m, z24.s, z0.s, #0
    8a24:	00000001 	udf	#1
    8a28:	64a00705 	fmls	z5.s, z24.s, z0.s[0]
    8a2c:	00000001 	udf	#1
    8a30:	64c00705 	fcmla	z5.d, p1/m, z24.d, z0.d, #0
    8a34:	00000001 	udf	#1
    8a38:	64e00705 	fmls	z5.d, z24.d, z0.d[0]
    8a3c:	00000001 	udf	#1
    8a40:	65000705 	bfsub	z5.h, z24.h, z0.h
    8a44:	00000001 	udf	#1
    8a48:	65200705 	bfmla	z5.h, p1/m, z24.h, z0.h
    8a4c:	00000001 	udf	#1
    8a50:	65400705 	fsub	z5.h, z24.h, z0.h
    8a54:	00000001 	udf	#1
    8a58:	65600705 	fmla	z5.h, p1/m, z24.h, z0.h
    8a5c:	00000001 	udf	#1
    8a60:	65800705 	fsub	z5.s, z24.s, z0.s
    8a64:	00000001 	udf	#1
    8a68:	65a00705 	fmla	z5.s, p1/m, z24.s, z0.s
    8a6c:	00000001 	udf	#1
    8a70:	65c00705 	fsub	z5.d, z24.d, z0.d
    8a74:	00000001 	udf	#1
    8a78:	65e00705 	fmla	z5.d, p1/m, z24.d, z0.d
    8a7c:	00000001 	udf	#1
    8a80:	66000705 	.inst	0x66000705 ; undefined
    8a84:	00000001 	udf	#1
    8a88:	66200705 	.inst	0x66200705 ; undefined
    8a8c:	00000001 	udf	#1
    8a90:	66400705 	.inst	0x66400705 ; undefined
    8a94:	00000001 	udf	#1
    8a98:	66600705 	.inst	0x66600705 ; undefined
    8a9c:	00000001 	udf	#1
    8aa0:	66800705 	.inst	0x66800705 ; undefined
    8aa4:	00000001 	udf	#1
    8aa8:	66a00705 	.inst	0x66a00705 ; undefined
    8aac:	00000001 	udf	#1
    8ab0:	66c00705 	.inst	0x66c00705 ; undefined
    8ab4:	00000001 	udf	#1
    8ab8:	66e00705 	.inst	0x66e00705 ; undefined
    8abc:	00000001 	udf	#1
    8ac0:	67000705 	.inst	0x67000705 ; undefined
    8ac4:	00000001 	udf	#1
    8ac8:	67200705 	.inst	0x67200705 ; undefined
    8acc:	00000001 	udf	#1
    8ad0:	67400705 	.inst	0x67400705 ; undefined
    8ad4:	00000001 	udf	#1
    8ad8:	67600705 	.inst	0x67600705 ; undefined
    8adc:	00000001 	udf	#1
    8ae0:	67800705 	.inst	0x67800705 ; undefined
    8ae4:	00000001 	udf	#1
    8ae8:	67a00705 	.inst	0x67a00705 ; undefined
    8aec:	00000001 	udf	#1
    8af0:	67c00705 	.inst	0x67c00705 ; undefined
    8af4:	00000001 	udf	#1
    8af8:	67e00705 	.inst	0x67e00705 ; undefined
    8afc:	00000001 	udf	#1
    8b00:	68000705 	.inst	0x68000705 ; undefined
    8b04:	00000001 	udf	#1
    8b08:	68200705 	.inst	0x68200705 ; undefined
    8b0c:	00000001 	udf	#1
    8b10:	68400705 	.inst	0x68400705 ; undefined
    8b14:	00000001 	udf	#1
    8b18:	68600705 	.inst	0x68600705 ; undefined
    8b1c:	00000001 	udf	#1
    8b20:	68800705 	stgp	x5, x1, [x24], #0
    8b24:	00000001 	udf	#1
    8b28:	68a00705 	stgp	x5, x1, [x24], #-1024
    8b2c:	00000001 	udf	#1
    8b30:	68c00705 	ldpsw	x5, x1, [x24], #0
    8b34:	00000001 	udf	#1
    8b38:	68e00705 	ldpsw	x5, x1, [x24], #-256
    8b3c:	00000001 	udf	#1
    8b40:	69000705 	stgp	x5, x1, [x24]
    8b44:	00000001 	udf	#1
    8b48:	69200705 	stgp	x5, x1, [x24, #-1024]
    8b4c:	00000001 	udf	#1
    8b50:	69400705 	ldpsw	x5, x1, [x24]
    8b54:	00000001 	udf	#1
    8b58:	69600705 	ldpsw	x5, x1, [x24, #-256]
    8b5c:	00000001 	udf	#1
    8b60:	69800705 	stgp	x5, x1, [x24, #0]!
    8b64:	00000001 	udf	#1
    8b68:	69a00705 	stgp	x5, x1, [x24, #-1024]!
    8b6c:	00000001 	udf	#1
    8b70:	69c00705 	ldpsw	x5, x1, [x24, #0]!
    8b74:	00000001 	udf	#1
    8b78:	69e00705 	ldpsw	x5, x1, [x24, #-256]!
    8b7c:	00000001 	udf	#1
    8b80:	6a000705 	ands	w5, w24, w0, lsl #1
    8b84:	00000001 	udf	#1
    8b88:	6a200705 	bics	w5, w24, w0, lsl #1
    8b8c:	00000001 	udf	#1
    8b90:	6a400705 	ands	w5, w24, w0, lsr #1
    8b94:	00000001 	udf	#1
    8b98:	6a600705 	bics	w5, w24, w0, lsr #1
    8b9c:	00000001 	udf	#1
    8ba0:	6a800705 	ands	w5, w24, w0, asr #1
    8ba4:	00000001 	udf	#1
    8ba8:	6aa00705 	bics	w5, w24, w0, asr #1
    8bac:	00000001 	udf	#1
    8bb0:	6ac00705 	ands	w5, w24, w0, ror #1
    8bb4:	00000001 	udf	#1
    8bb8:	6ae00705 	bics	w5, w24, w0, ror #1
    8bbc:	00000001 	udf	#1
    8bc0:	6b000705 	subs	w5, w24, w0, lsl #1
    8bc4:	00000001 	udf	#1
    8bc8:	6b200705 	subs	w5, w24, w0, uxtb #1
    8bcc:	00000001 	udf	#1
    8bd0:	6b400705 	subs	w5, w24, w0, lsr #1
    8bd4:	00000001 	udf	#1
    8bd8:	6b600705 	.inst	0x6b600705 ; undefined
    8bdc:	00000001 	udf	#1
    8be0:	6b800705 	subs	w5, w24, w0, asr #1
    8be4:	00000001 	udf	#1
    8be8:	6ba00705 	.inst	0x6ba00705 ; undefined
    8bec:	00000001 	udf	#1
    8bf0:	6bc00705 	.inst	0x6bc00705 ; undefined
    8bf4:	00000001 	udf	#1
    8bf8:	6be00705 	.inst	0x6be00705 ; undefined
    8bfc:	00000001 	udf	#1
    8c00:	6c000705 	stnp	d5, d1, [x24]
    8c04:	00000001 	udf	#1
    8c08:	6c200705 	stnp	d5, d1, [x24, #-512]
    8c0c:	00000001 	udf	#1
    8c10:	6c400705 	ldnp	d5, d1, [x24]
    8c14:	00000001 	udf	#1
    8c18:	6c600705 	ldnp	d5, d1, [x24, #-512]
    8c1c:	00000001 	udf	#1
    8c20:	6c800705 	stp	d5, d1, [x24], #0
    8c24:	00000001 	udf	#1
    8c28:	6ca00705 	stp	d5, d1, [x24], #-512
    8c2c:	00000001 	udf	#1
    8c30:	6cc00705 	ldp	d5, d1, [x24], #0
    8c34:	00000001 	udf	#1
    8c38:	6ce00705 	ldp	d5, d1, [x24], #-512
    8c3c:	00000001 	udf	#1
    8c40:	6d000705 	stp	d5, d1, [x24]
    8c44:	00000001 	udf	#1
    8c48:	6d200705 	stp	d5, d1, [x24, #-512]
    8c4c:	00000001 	udf	#1
    8c50:	6d400705 	ldp	d5, d1, [x24]
    8c54:	00000001 	udf	#1
    8c58:	6d600705 	ldp	d5, d1, [x24, #-512]
    8c5c:	00000001 	udf	#1
    8c60:	6d800705 	stp	d5, d1, [x24, #0]!
    8c64:	00000001 	udf	#1
    8c68:	6da00705 	stp	d5, d1, [x24, #-512]!
    8c6c:	00000001 	udf	#1
    8c70:	6dc00705 	ldp	d5, d1, [x24, #0]!
    8c74:	00000001 	udf	#1
    8c78:	6de00705 	ldp	d5, d1, [x24, #-512]!
    8c7c:	00000001 	udf	#1
    8c80:	6e000705 	.inst	0x6e000705 ; undefined
    8c84:	00000001 	udf	#1
    8c88:	6e200705 	uhadd	v5.16b, v24.16b, v0.16b
    8c8c:	00000001 	udf	#1
    8c90:	6e400705 	fmaxnmp	v5.8h, v24.8h, v0.8h
    8c94:	00000001 	udf	#1
    8c98:	6e600705 	uhadd	v5.8h, v24.8h, v0.8h
    8c9c:	00000001 	udf	#1
    8ca0:	6e800705 	.inst	0x6e800705 ; undefined
    8ca4:	00000001 	udf	#1
    8ca8:	6ea00705 	uhadd	v5.4s, v24.4s, v0.4s
    8cac:	00000001 	udf	#1
    8cb0:	6ec00705 	fminnmp	v5.8h, v24.8h, v0.8h
    8cb4:	00000001 	udf	#1
    8cb8:	6ee00705 	.inst	0x6ee00705 ; undefined
    8cbc:	00000001 	udf	#1
    8cc0:	6f000705 	mvni	v5.4s, #0x18
    8cc4:	00000001 	udf	#1
    8cc8:	6f200705 	ushr	v5.4s, v24.4s, #32
    8ccc:	00000001 	udf	#1
    8cd0:	6f400705 	ushr	v5.2d, v24.2d, #64
    8cd4:	00000001 	udf	#1
    8cd8:	6f600705 	ushr	v5.2d, v24.2d, #32
    8cdc:	00000001 	udf	#1
    8ce0:	6f800705 	.inst	0x6f800705 ; undefined
    8ce4:	00000001 	udf	#1
    8ce8:	6fa00705 	.inst	0x6fa00705 ; undefined
    8cec:	00000001 	udf	#1
    8cf0:	6fc00705 	.inst	0x6fc00705 ; undefined
    8cf4:	00000001 	udf	#1
    8cf8:	6fe00705 	.inst	0x6fe00705 ; undefined
    8cfc:	00000001 	udf	#1
    8d00:	70000705 	adr	x5, 8de3 <MMUTableL2.2+0x1ce3>
    8d04:	00000001 	udf	#1
    8d08:	70200705 	adr	x5, 48deb <__stack_end+0x3205b>
    8d0c:	00000001 	udf	#1
    8d10:	70400705 	adr	x5, 88df3 <__stack_end+0x72063>
    8d14:	00000001 	udf	#1
    8d18:	70600705 	adr	x5, c8dfb <__stack_end+0xb206b>
    8d1c:	00000001 	udf	#1
    8d20:	70800705 	adr	x5, fffffffffff08e03 <DEVICE+0xff9ffffffff089fa>
    8d24:	00000001 	udf	#1
    8d28:	70a00705 	adr	x5, fffffffffff48e0b <DEVICE+0xff9ffffffff48a02>
    8d2c:	00000001 	udf	#1
    8d30:	70c00705 	adr	x5, fffffffffff88e13 <DEVICE+0xff9ffffffff88a0a>
    8d34:	00000001 	udf	#1
    8d38:	70e00705 	adr	x5, fffffffffffc8e1b <DEVICE+0xff9ffffffffc8a12>
    8d3c:	00000001 	udf	#1
    8d40:	71000705 	subs	w5, w24, #0x1
    8d44:	00000001 	udf	#1
    8d48:	71200705 	subs	w5, w24, #0x801
    8d4c:	00000001 	udf	#1
    8d50:	71400705 	subs	w5, w24, #0x1, lsl #12
    8d54:	00000001 	udf	#1
    8d58:	71600705 	subs	w5, w24, #0x801, lsl #12
    8d5c:	00000001 	udf	#1
    8d60:	71800705 	.inst	0x71800705 ; undefined
    8d64:	00000001 	udf	#1
    8d68:	71a00705 	.inst	0x71a00705 ; undefined
    8d6c:	00000001 	udf	#1
    8d70:	71c00705 	.inst	0x71c00705 ; undefined
    8d74:	00000001 	udf	#1
    8d78:	71e00705 	.inst	0x71e00705 ; undefined
    8d7c:	00000001 	udf	#1
    8d80:	72000705 	ands	w5, w24, #0x3
    8d84:	00000001 	udf	#1
    8d88:	72200705 	ands	w5, w24, #0x3
    8d8c:	00000001 	udf	#1
    8d90:	72400705 	.inst	0x72400705 ; undefined
    8d94:	00000001 	udf	#1
    8d98:	72600705 	.inst	0x72600705 ; undefined
    8d9c:	00000001 	udf	#1
    8da0:	72800705 	movk	w5, #0x38
    8da4:	00000001 	udf	#1
    8da8:	72a00705 	movk	w5, #0x38, lsl #16
    8dac:	00000001 	udf	#1
    8db0:	72c00705 	.inst	0x72c00705 ; undefined
    8db4:	00000001 	udf	#1
    8db8:	72e00705 	.inst	0x72e00705 ; undefined
    8dbc:	00000001 	udf	#1
    8dc0:	73000705 	.inst	0x73000705 ; undefined
    8dc4:	00000001 	udf	#1
    8dc8:	73200705 	.inst	0x73200705 ; undefined
    8dcc:	00000001 	udf	#1
    8dd0:	73400705 	.inst	0x73400705 ; undefined
    8dd4:	00000001 	udf	#1
    8dd8:	73600705 	.inst	0x73600705 ; undefined
    8ddc:	00000001 	udf	#1
    8de0:	73800705 	.inst	0x73800705 ; undefined
    8de4:	00000001 	udf	#1
    8de8:	73a00705 	.inst	0x73a00705 ; undefined
    8dec:	00000001 	udf	#1
    8df0:	73c00705 	.inst	0x73c00705 ; undefined
    8df4:	00000001 	udf	#1
    8df8:	73e00705 	.inst	0x73e00705 ; undefined
    8dfc:	00000001 	udf	#1
    8e00:	74000705 	.inst	0x74000705 ; undefined
    8e04:	00000001 	udf	#1
    8e08:	74200705 	.inst	0x74200705 ; undefined
    8e0c:	00000001 	udf	#1
    8e10:	74400705 	.inst	0x74400705 ; undefined
    8e14:	00000001 	udf	#1
    8e18:	74600705 	.inst	0x74600705 ; undefined
    8e1c:	00000001 	udf	#1
    8e20:	74800705 	.inst	0x74800705 ; undefined
    8e24:	00000001 	udf	#1
    8e28:	74a00705 	.inst	0x74a00705 ; undefined
    8e2c:	00000001 	udf	#1
    8e30:	74c00705 	.inst	0x74c00705 ; undefined
    8e34:	00000001 	udf	#1
    8e38:	74e00705 	.inst	0x74e00705 ; undefined
    8e3c:	00000001 	udf	#1
    8e40:	75000705 	.inst	0x75000705 ; undefined
    8e44:	00000001 	udf	#1
    8e48:	75200705 	.inst	0x75200705 ; undefined
    8e4c:	00000001 	udf	#1
    8e50:	75400705 	.inst	0x75400705 ; undefined
    8e54:	00000001 	udf	#1
    8e58:	75600705 	.inst	0x75600705 ; undefined
    8e5c:	00000001 	udf	#1
    8e60:	75800705 	.inst	0x75800705 ; undefined
    8e64:	00000001 	udf	#1
    8e68:	75a00705 	.inst	0x75a00705 ; undefined
    8e6c:	00000001 	udf	#1
    8e70:	75c00705 	.inst	0x75c00705 ; undefined
    8e74:	00000001 	udf	#1
    8e78:	75e00705 	.inst	0x75e00705 ; undefined
    8e7c:	00000001 	udf	#1
    8e80:	76000705 	.inst	0x76000705 ; undefined
    8e84:	00000001 	udf	#1
    8e88:	76200705 	.inst	0x76200705 ; undefined
    8e8c:	00000001 	udf	#1
    8e90:	76400705 	.inst	0x76400705 ; undefined
    8e94:	00000001 	udf	#1
    8e98:	76600705 	.inst	0x76600705 ; undefined
    8e9c:	00000001 	udf	#1
    8ea0:	76800705 	.inst	0x76800705 ; undefined
    8ea4:	00000001 	udf	#1
    8ea8:	76a00705 	.inst	0x76a00705 ; undefined
    8eac:	00000001 	udf	#1
    8eb0:	76c00705 	.inst	0x76c00705 ; undefined
    8eb4:	00000001 	udf	#1
    8eb8:	76e00705 	.inst	0x76e00705 ; undefined
    8ebc:	00000001 	udf	#1
    8ec0:	77000705 	.inst	0x77000705 ; undefined
    8ec4:	00000001 	udf	#1
    8ec8:	77200705 	.inst	0x77200705 ; undefined
    8ecc:	00000001 	udf	#1
    8ed0:	77400705 	.inst	0x77400705 ; undefined
    8ed4:	00000001 	udf	#1
    8ed8:	77600705 	.inst	0x77600705 ; undefined
    8edc:	00000001 	udf	#1
    8ee0:	77800705 	.inst	0x77800705 ; undefined
    8ee4:	00000001 	udf	#1
    8ee8:	77a00705 	.inst	0x77a00705 ; undefined
    8eec:	00000001 	udf	#1
    8ef0:	77c00705 	.inst	0x77c00705 ; undefined
    8ef4:	00000001 	udf	#1
    8ef8:	77e00705 	.inst	0x77e00705 ; undefined
    8efc:	00000001 	udf	#1
    8f00:	78000705 	strh	w5, [x24], #0
    8f04:	00000001 	udf	#1
    8f08:	78200705 	.inst	0x78200705 ; undefined
    8f0c:	00000001 	udf	#1
    8f10:	78400705 	ldrh	w5, [x24], #0
    8f14:	00000001 	udf	#1
    8f18:	78600705 	.inst	0x78600705 ; undefined
    8f1c:	00000001 	udf	#1
    8f20:	78800705 	ldrsh	x5, [x24], #0
    8f24:	00000001 	udf	#1
    8f28:	78a00705 	.inst	0x78a00705 ; undefined
    8f2c:	00000001 	udf	#1
    8f30:	78c00705 	ldrsh	w5, [x24], #0
    8f34:	00000001 	udf	#1
    8f38:	78e00705 	.inst	0x78e00705 ; undefined
    8f3c:	00000001 	udf	#1
    8f40:	79000705 	strh	w5, [x24, #2]
    8f44:	00000001 	udf	#1
    8f48:	79200705 	strh	w5, [x24, #4098]
    8f4c:	00000001 	udf	#1
    8f50:	79400705 	ldrh	w5, [x24, #2]
    8f54:	00000001 	udf	#1
    8f58:	79600705 	ldrh	w5, [x24, #4098]
    8f5c:	00000001 	udf	#1
    8f60:	79800705 	ldrsh	x5, [x24, #2]
    8f64:	00000001 	udf	#1
    8f68:	79a00705 	ldrsh	x5, [x24, #4098]
    8f6c:	00000001 	udf	#1
    8f70:	79c00705 	ldrsh	w5, [x24, #2]
    8f74:	00000001 	udf	#1
    8f78:	79e00705 	ldrsh	w5, [x24, #4098]
    8f7c:	00000001 	udf	#1
    8f80:	7a000705 	.inst	0x7a000705 ; undefined
    8f84:	00000001 	udf	#1
    8f88:	7a200705 	.inst	0x7a200705 ; undefined
    8f8c:	00000001 	udf	#1
    8f90:	7a400705 	.inst	0x7a400705 ; undefined
    8f94:	00000001 	udf	#1
    8f98:	7a600705 	.inst	0x7a600705 ; undefined
    8f9c:	00000001 	udf	#1
    8fa0:	7a800705 	.inst	0x7a800705 ; undefined
    8fa4:	00000001 	udf	#1
    8fa8:	7aa00705 	.inst	0x7aa00705 ; undefined
    8fac:	00000001 	udf	#1
    8fb0:	7ac00705 	.inst	0x7ac00705 ; undefined
    8fb4:	00000001 	udf	#1
    8fb8:	7ae00705 	.inst	0x7ae00705 ; undefined
    8fbc:	00000001 	udf	#1
    8fc0:	7b000705 	.inst	0x7b000705 ; undefined
    8fc4:	00000001 	udf	#1
    8fc8:	7b200705 	.inst	0x7b200705 ; undefined
    8fcc:	00000001 	udf	#1
    8fd0:	7b400705 	.inst	0x7b400705 ; undefined
    8fd4:	00000001 	udf	#1
    8fd8:	7b600705 	.inst	0x7b600705 ; undefined
    8fdc:	00000001 	udf	#1
    8fe0:	7b800705 	.inst	0x7b800705 ; undefined
    8fe4:	00000001 	udf	#1
    8fe8:	7ba00705 	.inst	0x7ba00705 ; undefined
    8fec:	00000001 	udf	#1
    8ff0:	7bc00705 	.inst	0x7bc00705 ; undefined
    8ff4:	00000001 	udf	#1
    8ff8:	7be00705 	.inst	0x7be00705 ; undefined
    8ffc:	00000001 	udf	#1
    9000:	7c000705 	str	h5, [x24], #0
    9004:	00000001 	udf	#1
    9008:	7c200705 	.inst	0x7c200705 ; undefined
    900c:	00000001 	udf	#1
    9010:	7c400705 	ldr	h5, [x24], #0
    9014:	00000001 	udf	#1
    9018:	7c600705 	.inst	0x7c600705 ; undefined
    901c:	00000001 	udf	#1
    9020:	7c800705 	.inst	0x7c800705 ; undefined
    9024:	00000001 	udf	#1
    9028:	7ca00705 	.inst	0x7ca00705 ; undefined
    902c:	00000001 	udf	#1
    9030:	7cc00705 	.inst	0x7cc00705 ; undefined
    9034:	00000001 	udf	#1
    9038:	7ce00705 	.inst	0x7ce00705 ; undefined
    903c:	00000001 	udf	#1
    9040:	7d000705 	str	h5, [x24, #2]
    9044:	00000001 	udf	#1
    9048:	7d200705 	str	h5, [x24, #4098]
    904c:	00000001 	udf	#1
    9050:	7d400705 	ldr	h5, [x24, #2]
    9054:	00000001 	udf	#1
    9058:	7d600705 	ldr	h5, [x24, #4098]
    905c:	00000001 	udf	#1
    9060:	7d800705 	.inst	0x7d800705 ; undefined
    9064:	00000001 	udf	#1
    9068:	7da00705 	.inst	0x7da00705 ; undefined
    906c:	00000001 	udf	#1
    9070:	7dc00705 	.inst	0x7dc00705 ; undefined
    9074:	00000001 	udf	#1
    9078:	7de00705 	.inst	0x7de00705 ; undefined
    907c:	00000001 	udf	#1
    9080:	7e000705 	.inst	0x7e000705 ; undefined
    9084:	00000001 	udf	#1
    9088:	7e200705 	.inst	0x7e200705 ; undefined
    908c:	00000001 	udf	#1
    9090:	7e400705 	.inst	0x7e400705 ; undefined
    9094:	00000001 	udf	#1
    9098:	7e600705 	.inst	0x7e600705 ; undefined
    909c:	00000001 	udf	#1
    90a0:	7e800705 	.inst	0x7e800705 ; undefined
    90a4:	00000001 	udf	#1
    90a8:	7ea00705 	.inst	0x7ea00705 ; undefined
    90ac:	00000001 	udf	#1
    90b0:	7ec00705 	.inst	0x7ec00705 ; undefined
    90b4:	00000001 	udf	#1
    90b8:	7ee00705 	.inst	0x7ee00705 ; undefined
    90bc:	00000001 	udf	#1
    90c0:	7f000705 	.inst	0x7f000705 ; undefined
    90c4:	00000001 	udf	#1
    90c8:	7f200705 	.inst	0x7f200705 ; undefined
    90cc:	00000001 	udf	#1
    90d0:	7f400705 	ushr	d5, d24, #64
    90d4:	00000001 	udf	#1
    90d8:	7f600705 	ushr	d5, d24, #32
    90dc:	00000001 	udf	#1
    90e0:	7f800705 	.inst	0x7f800705 ; undefined
    90e4:	00000001 	udf	#1
    90e8:	7fa00705 	.inst	0x7fa00705 ; undefined
    90ec:	00000001 	udf	#1
    90f0:	7fc00705 	.inst	0x7fc00705 ; undefined
    90f4:	00000001 	udf	#1
    90f8:	7fe00705 	.inst	0x7fe00705 ; undefined
    90fc:	00000001 	udf	#1
    9100:	80000705 	.inst	0x80000705 ; undefined
    9104:	00000001 	udf	#1
    9108:	80200705 	.inst	0x80200705 ; NYI
    910c:	00000001 	udf	#1
    9110:	80400705 	.inst	0x80400705 ; undefined
    9114:	00000001 	udf	#1
    9118:	80600705 	.inst	0x80600705 ; undefined
    911c:	00000001 	udf	#1
    9120:	80800705 	.inst	0x80800705 ; undefined
    9124:	00000001 	udf	#1
    9128:	80a00705 	.inst	0x80a00705 ; undefined
    912c:	00000001 	udf	#1
    9130:	80c00705 	fmopa	za5.d, p1/m, p0/m, z24.d, z0.d
    9134:	00000001 	udf	#1
    9138:	80e00705 	.inst	0x80e00705 ; undefined
    913c:	00000001 	udf	#1
    9140:	81000705 	.inst	0x81000705 ; undefined
    9144:	00000001 	udf	#1
    9148:	81200705 	.inst	0x81200705 ; undefined
    914c:	00000001 	udf	#1
    9150:	81400705 	.inst	0x81400705 ; undefined
    9154:	00000001 	udf	#1
    9158:	81600705 	.inst	0x81600705 ; undefined
    915c:	00000001 	udf	#1
    9160:	81800705 	.inst	0x81800705 ; undefined
    9164:	00000001 	udf	#1
    9168:	81a00705 	.inst	0x81a00705 ; undefined
    916c:	00000001 	udf	#1
    9170:	81c00705 	.inst	0x81c00705 ; undefined
    9174:	00000001 	udf	#1
    9178:	81e00705 	.inst	0x81e00705 ; undefined
    917c:	00000001 	udf	#1
    9180:	82000705 	.inst	0x82000705 ; undefined
    9184:	00000001 	udf	#1
    9188:	82200705 	.inst	0x82200705 ; undefined
    918c:	00000001 	udf	#1
    9190:	82400705 	.inst	0x82400705 ; undefined
    9194:	00000001 	udf	#1
    9198:	82600705 	.inst	0x82600705 ; undefined
    919c:	00000001 	udf	#1
    91a0:	82800705 	.inst	0x82800705 ; undefined
    91a4:	00000001 	udf	#1
    91a8:	82a00705 	.inst	0x82a00705 ; undefined
    91ac:	00000001 	udf	#1
    91b0:	82c00705 	.inst	0x82c00705 ; undefined
    91b4:	00000001 	udf	#1
    91b8:	82e00705 	.inst	0x82e00705 ; undefined
    91bc:	00000001 	udf	#1
    91c0:	83000705 	.inst	0x83000705 ; undefined
    91c4:	00000001 	udf	#1
    91c8:	83200705 	.inst	0x83200705 ; undefined
    91cc:	00000001 	udf	#1
    91d0:	83400705 	.inst	0x83400705 ; undefined
    91d4:	00000001 	udf	#1
    91d8:	83600705 	.inst	0x83600705 ; undefined
    91dc:	00000001 	udf	#1
    91e0:	83800705 	.inst	0x83800705 ; undefined
    91e4:	00000001 	udf	#1
    91e8:	83a00705 	.inst	0x83a00705 ; undefined
    91ec:	00000001 	udf	#1
    91f0:	83c00705 	.inst	0x83c00705 ; undefined
    91f4:	00000001 	udf	#1
    91f8:	83e00705 	.inst	0x83e00705 ; undefined
    91fc:	00000001 	udf	#1
    9200:	84000705 	ld1sb	{z5.s}, p1/z, [x24, z0.s, uxtw]
    9204:	00000001 	udf	#1
    9208:	84200705 	prfb	pldl3strm, p1, [x24, z0.s, uxtw]
    920c:	00000001 	udf	#1
    9210:	84400705 	ld1sb	{z5.s}, p1/z, [x24, z0.s, sxtw]
    9214:	00000001 	udf	#1
    9218:	84600705 	prfb	pldl3strm, p1, [x24, z0.s, sxtw]
    921c:	00000001 	udf	#1
    9220:	84800705 	ld1sh	{z5.s}, p1/z, [x24, z0.s, uxtw]
    9224:	00000001 	udf	#1
    9228:	84a00705 	ld1sh	{z5.s}, p1/z, [x24, z0.s, uxtw #1]
    922c:	00000001 	udf	#1
    9230:	84c00705 	ld1sh	{z5.s}, p1/z, [x24, z0.s, sxtw]
    9234:	00000001 	udf	#1
    9238:	84e00705 	ld1sh	{z5.s}, p1/z, [x24, z0.s, sxtw #1]
    923c:	00000001 	udf	#1
    9240:	85000705 	.inst	0x85000705 ; undefined
    9244:	00000001 	udf	#1
    9248:	85200705 	.inst	0x85200705 ; undefined
    924c:	00000001 	udf	#1
    9250:	85400705 	.inst	0x85400705 ; undefined
    9254:	00000001 	udf	#1
    9258:	85600705 	.inst	0x85600705 ; undefined
    925c:	00000001 	udf	#1
    9260:	85800705 	ldr	p5, [x24, #1, mul vl]
    9264:	00000001 	udf	#1
    9268:	85a00705 	ldr	p5, [x24, #-255, mul vl]
    926c:	00000001 	udf	#1
    9270:	85c00705 	prfb	pldl3strm, p1, [x24]
    9274:	00000001 	udf	#1
    9278:	85e00705 	prfb	pldl3strm, p1, [x24, #-32, mul vl]
    927c:	00000001 	udf	#1
    9280:	86000705 	.inst	0x86000705 ; undefined
    9284:	00000001 	udf	#1
    9288:	86200705 	.inst	0x86200705 ; undefined
    928c:	00000001 	udf	#1
    9290:	86400705 	.inst	0x86400705 ; undefined
    9294:	00000001 	udf	#1
    9298:	86600705 	.inst	0x86600705 ; undefined
    929c:	00000001 	udf	#1
    92a0:	86800705 	.inst	0x86800705 ; undefined
    92a4:	00000001 	udf	#1
    92a8:	86a00705 	.inst	0x86a00705 ; undefined
    92ac:	00000001 	udf	#1
    92b0:	86c00705 	.inst	0x86c00705 ; undefined
    92b4:	00000001 	udf	#1
    92b8:	86e00705 	.inst	0x86e00705 ; undefined
    92bc:	00000001 	udf	#1
    92c0:	87000705 	.inst	0x87000705 ; undefined
    92c4:	00000001 	udf	#1
    92c8:	87200705 	.inst	0x87200705 ; undefined
    92cc:	00000001 	udf	#1
    92d0:	87400705 	.inst	0x87400705 ; undefined
    92d4:	00000001 	udf	#1
    92d8:	87600705 	.inst	0x87600705 ; undefined
    92dc:	00000001 	udf	#1
    92e0:	87800705 	.inst	0x87800705 ; undefined
    92e4:	00000001 	udf	#1
    92e8:	87a00705 	.inst	0x87a00705 ; undefined
    92ec:	00000001 	udf	#1
    92f0:	87c00705 	.inst	0x87c00705 ; undefined
    92f4:	00000001 	udf	#1
    92f8:	87e00705 	.inst	0x87e00705 ; undefined
    92fc:	00000001 	udf	#1
    9300:	88000705 	stxr	w0, w5, [x24]
    9304:	00000001 	udf	#1
    9308:	88200705 	stxp	w0, w5, w1, [x24]
    930c:	00000001 	udf	#1
    9310:	88400705 	ldxr	w5, [x24]
    9314:	00000001 	udf	#1
    9318:	88600705 	ldxp	w5, w1, [x24]
    931c:	00000001 	udf	#1
    9320:	88800705 	stllr	w5, [x24]
    9324:	00000001 	udf	#1
    9328:	88a00705 	.inst	0x88a00705 ; undefined
    932c:	00000001 	udf	#1
    9330:	88c00705 	ldlar	w5, [x24]
    9334:	00000001 	udf	#1
    9338:	88e00705 	.inst	0x88e00705 ; undefined
    933c:	00000001 	udf	#1
    9340:	89000705 	.inst	0x89000705 ; undefined
    9344:	00000001 	udf	#1
    9348:	89200705 	.inst	0x89200705 ; undefined
    934c:	00000001 	udf	#1
    9350:	89400705 	.inst	0x89400705 ; undefined
    9354:	00000001 	udf	#1
    9358:	89600705 	.inst	0x89600705 ; undefined
    935c:	00000001 	udf	#1
    9360:	89800705 	.inst	0x89800705 ; undefined
    9364:	00000001 	udf	#1
    9368:	89a00705 	.inst	0x89a00705 ; undefined
    936c:	00000001 	udf	#1
    9370:	89c00705 	.inst	0x89c00705 ; undefined
    9374:	00000001 	udf	#1
    9378:	89e00705 	.inst	0x89e00705 ; undefined
    937c:	00000001 	udf	#1
    9380:	8a000705 	and	x5, x24, x0, lsl #1
    9384:	00000001 	udf	#1
    9388:	8a200705 	bic	x5, x24, x0, lsl #1
    938c:	00000001 	udf	#1
    9390:	8a400705 	and	x5, x24, x0, lsr #1
    9394:	00000001 	udf	#1
    9398:	8a600705 	bic	x5, x24, x0, lsr #1
    939c:	00000001 	udf	#1
    93a0:	8a800705 	and	x5, x24, x0, asr #1
    93a4:	00000001 	udf	#1
    93a8:	8aa00705 	bic	x5, x24, x0, asr #1
    93ac:	00000001 	udf	#1
    93b0:	8ac00705 	and	x5, x24, x0, ror #1
    93b4:	00000001 	udf	#1
    93b8:	8ae00705 	bic	x5, x24, x0, ror #1
    93bc:	00000001 	udf	#1
    93c0:	8b000705 	add	x5, x24, x0, lsl #1
    93c4:	00000001 	udf	#1
    93c8:	8b200705 	add	x5, x24, w0, uxtb #1
    93cc:	00000001 	udf	#1
    93d0:	8b400705 	add	x5, x24, x0, lsr #1
    93d4:	00000001 	udf	#1
    93d8:	8b600705 	.inst	0x8b600705 ; undefined
    93dc:	00000001 	udf	#1
    93e0:	8b800705 	add	x5, x24, x0, asr #1
    93e4:	00000001 	udf	#1
    93e8:	8ba00705 	.inst	0x8ba00705 ; undefined
    93ec:	00000001 	udf	#1
    93f0:	8bc00705 	.inst	0x8bc00705 ; undefined
    93f4:	00000001 	udf	#1
    93f8:	8be00705 	.inst	0x8be00705 ; undefined
    93fc:	00000001 	udf	#1
    9400:	8c000705 	.inst	0x8c000705 ; undefined
    9404:	00000001 	udf	#1
    9408:	8c200705 	.inst	0x8c200705 ; undefined
    940c:	00000001 	udf	#1
    9410:	8c400705 	.inst	0x8c400705 ; undefined
    9414:	00000001 	udf	#1
    9418:	8c600705 	.inst	0x8c600705 ; undefined
    941c:	00000001 	udf	#1
    9420:	8c800705 	.inst	0x8c800705 ; undefined
    9424:	00000001 	udf	#1
    9428:	8ca00705 	.inst	0x8ca00705 ; undefined
    942c:	00000001 	udf	#1
    9430:	8cc00705 	.inst	0x8cc00705 ; undefined
    9434:	00000001 	udf	#1
    9438:	8ce00705 	.inst	0x8ce00705 ; undefined
    943c:	00000001 	udf	#1
    9440:	8d000705 	.inst	0x8d000705 ; undefined
    9444:	00000001 	udf	#1
    9448:	8d200705 	.inst	0x8d200705 ; undefined
    944c:	00000001 	udf	#1
    9450:	8d400705 	.inst	0x8d400705 ; undefined
    9454:	00000001 	udf	#1
    9458:	8d600705 	.inst	0x8d600705 ; undefined
    945c:	00000001 	udf	#1
    9460:	8d800705 	.inst	0x8d800705 ; undefined
    9464:	00000001 	udf	#1
    9468:	8da00705 	.inst	0x8da00705 ; undefined
    946c:	00000001 	udf	#1
    9470:	8dc00705 	.inst	0x8dc00705 ; undefined
    9474:	00000001 	udf	#1
    9478:	8de00705 	.inst	0x8de00705 ; undefined
    947c:	00000001 	udf	#1
    9480:	8e000705 	.inst	0x8e000705 ; undefined
    9484:	00000001 	udf	#1
    9488:	8e200705 	.inst	0x8e200705 ; undefined
    948c:	00000001 	udf	#1
    9490:	8e400705 	.inst	0x8e400705 ; undefined
    9494:	00000001 	udf	#1
    9498:	8e600705 	.inst	0x8e600705 ; undefined
    949c:	00000001 	udf	#1
    94a0:	8e800705 	.inst	0x8e800705 ; undefined
    94a4:	00000001 	udf	#1
    94a8:	8ea00705 	.inst	0x8ea00705 ; undefined
    94ac:	00000001 	udf	#1
    94b0:	8ec00705 	.inst	0x8ec00705 ; undefined
    94b4:	00000001 	udf	#1
    94b8:	8ee00705 	.inst	0x8ee00705 ; undefined
    94bc:	00000001 	udf	#1
    94c0:	8f000705 	.inst	0x8f000705 ; undefined
    94c4:	00000001 	udf	#1
    94c8:	8f200705 	.inst	0x8f200705 ; undefined
    94cc:	00000001 	udf	#1
    94d0:	8f400705 	.inst	0x8f400705 ; undefined
    94d4:	00000001 	udf	#1
    94d8:	8f600705 	.inst	0x8f600705 ; undefined
    94dc:	00000001 	udf	#1
    94e0:	8f800705 	.inst	0x8f800705 ; undefined
    94e4:	00000001 	udf	#1
    94e8:	8fa00705 	.inst	0x8fa00705 ; undefined
    94ec:	00000001 	udf	#1
    94f0:	8fc00705 	.inst	0x8fc00705 ; undefined
    94f4:	00000001 	udf	#1
    94f8:	8fe00705 	.inst	0x8fe00705 ; undefined
    94fc:	00000001 	udf	#1
    9500:	90000705 	adrp	x5, e9000 <__stack_end+0xd2270>
    9504:	00000001 	udf	#1
    9508:	90200705 	adrp	x5, 400e9000 <__buffer_end+0x3fde9000>
    950c:	00000001 	udf	#1
    9510:	90400705 	adrp	x5, 800e9000 <__buffer_end+0x7fde9000>
    9514:	00000001 	udf	#1
    9518:	90600705 	adrp	x5, c00e9000 <__buffer_end+0xbfde9000>
    951c:	00000001 	udf	#1
    9520:	90800705 	adrp	x5, ffffffff000e9000 <DEVICE+0xff9fffff000e8bf7>
    9524:	00000001 	udf	#1
    9528:	90a00705 	adrp	x5, ffffffff400e9000 <DEVICE+0xff9fffff400e8bf7>
    952c:	00000001 	udf	#1
    9530:	90c00705 	adrp	x5, ffffffff800e9000 <DEVICE+0xff9fffff800e8bf7>
    9534:	00000001 	udf	#1
    9538:	90e00705 	adrp	x5, ffffffffc00e9000 <DEVICE+0xff9fffffc00e8bf7>
    953c:	00000001 	udf	#1
    9540:	91000705 	add	x5, x24, #0x1
    9544:	00000001 	udf	#1
    9548:	91200705 	add	x5, x24, #0x801
    954c:	00000001 	udf	#1
    9550:	91400705 	add	x5, x24, #0x1, lsl #12
    9554:	00000001 	udf	#1
    9558:	91600705 	add	x5, x24, #0x801, lsl #12
    955c:	00000001 	udf	#1
    9560:	91800705 	addg	x5, x24, #0x0, #0x1
    9564:	00000001 	udf	#1
    9568:	91a00705 	addg	x5, x24, #0x200, #0x1
    956c:	00000001 	udf	#1
    9570:	91c00705 	smax	x5, x24, #1
    9574:	00000001 	udf	#1
    9578:	91e00705 	.inst	0x91e00705 ; undefined
    957c:	00000001 	udf	#1
    9580:	92000705 	and	x5, x24, #0x300000003
    9584:	00000001 	udf	#1
    9588:	92200705 	and	x5, x24, #0x300000003
    958c:	00000001 	udf	#1
    9590:	92400705 	and	x5, x24, #0x3
    9594:	00000001 	udf	#1
    9598:	92600705 	and	x5, x24, #0x300000000
    959c:	00000001 	udf	#1
    95a0:	92800705 	mov	x5, #0xffffffffffffffc7    	// #-57
    95a4:	00000001 	udf	#1
    95a8:	92a00705 	mov	x5, #0xffffffffffc7ffff    	// #-3670017
    95ac:	00000001 	udf	#1
    95b0:	92c00705 	mov	x5, #0xffffffc7ffffffff    	// #-240518168577
    95b4:	00000001 	udf	#1
    95b8:	92e00705 	mov	x5, #0xffc7ffffffffffff    	// #-15762598695796737
    95bc:	00000001 	udf	#1
    95c0:	93000705 	.inst	0x93000705 ; undefined
    95c4:	00000001 	udf	#1
    95c8:	93200705 	.inst	0x93200705 ; undefined
    95cc:	00000001 	udf	#1
    95d0:	93400705 	sbfx	x5, x24, #0, #2
    95d4:	00000001 	udf	#1
    95d8:	93600705 	sbfiz	x5, x24, #32, #2
    95dc:	00000001 	udf	#1
    95e0:	93800705 	.inst	0x93800705 ; undefined
    95e4:	00000001 	udf	#1
    95e8:	93a00705 	.inst	0x93a00705 ; undefined
    95ec:	00000001 	udf	#1
    95f0:	93c00705 	extr	x5, x24, x0, #1
    95f4:	00000001 	udf	#1
    95f8:	93e00705 	.inst	0x93e00705 ; undefined
    95fc:	00000001 	udf	#1
    9600:	94000705 	bl	b214 <MMUTableL2.2+0x4114>
    9604:	00000001 	udf	#1
    9608:	94200705 	bl	80b21c <__buffer_end+0x50b21c>
    960c:	00000001 	udf	#1
    9610:	94400705 	bl	100b224 <__buffer_end+0xd0b224>
    9614:	00000001 	udf	#1
    9618:	94600705 	bl	180b22c <__buffer_end+0x150b22c>
    961c:	00000001 	udf	#1
    9620:	94800705 	bl	200b234 <__buffer_end+0x1d0b234>
    9624:	00000001 	udf	#1
    9628:	94a00705 	bl	280b23c <__buffer_end+0x250b23c>
    962c:	00000001 	udf	#1
    9630:	94c00705 	bl	300b244 <__buffer_end+0x2d0b244>
    9634:	00000001 	udf	#1
    9638:	94e00705 	bl	380b24c <__buffer_end+0x350b24c>
    963c:	00000001 	udf	#1
    9640:	95000705 	bl	400b254 <__buffer_end+0x3d0b254>
    9644:	00000001 	udf	#1
    9648:	95200705 	bl	480b25c <__buffer_end+0x450b25c>
    964c:	00000001 	udf	#1
    9650:	95400705 	bl	500b264 <__buffer_end+0x4d0b264>
    9654:	00000001 	udf	#1
    9658:	95600705 	bl	580b26c <__buffer_end+0x550b26c>
    965c:	00000001 	udf	#1
    9660:	95800705 	bl	600b274 <__buffer_end+0x5d0b274>
    9664:	00000001 	udf	#1
    9668:	95a00705 	bl	680b27c <__buffer_end+0x650b27c>
    966c:	00000001 	udf	#1
    9670:	95c00705 	bl	700b284 <__buffer_end+0x6d0b284>
    9674:	00000001 	udf	#1
    9678:	95e00705 	bl	780b28c <__buffer_end+0x750b28c>
    967c:	00000001 	udf	#1
    9680:	96000705 	bl	fffffffff800b294 <DEVICE+0xff9ffffff800ae8b>
    9684:	00000001 	udf	#1
    9688:	96200705 	bl	fffffffff880b29c <DEVICE+0xff9ffffff880ae93>
    968c:	00000001 	udf	#1
    9690:	96400705 	bl	fffffffff900b2a4 <DEVICE+0xff9ffffff900ae9b>
    9694:	00000001 	udf	#1
    9698:	96600705 	bl	fffffffff980b2ac <DEVICE+0xff9ffffff980aea3>
    969c:	00000001 	udf	#1
    96a0:	96800705 	bl	fffffffffa00b2b4 <DEVICE+0xff9ffffffa00aeab>
    96a4:	00000001 	udf	#1
    96a8:	96a00705 	bl	fffffffffa80b2bc <DEVICE+0xff9ffffffa80aeb3>
    96ac:	00000001 	udf	#1
    96b0:	96c00705 	bl	fffffffffb00b2c4 <DEVICE+0xff9ffffffb00aebb>
    96b4:	00000001 	udf	#1
    96b8:	96e00705 	bl	fffffffffb80b2cc <DEVICE+0xff9ffffffb80aec3>
    96bc:	00000001 	udf	#1
    96c0:	97000705 	bl	fffffffffc00b2d4 <DEVICE+0xff9ffffffc00aecb>
    96c4:	00000001 	udf	#1
    96c8:	97200705 	bl	fffffffffc80b2dc <DEVICE+0xff9ffffffc80aed3>
    96cc:	00000001 	udf	#1
    96d0:	97400705 	bl	fffffffffd00b2e4 <DEVICE+0xff9ffffffd00aedb>
    96d4:	00000001 	udf	#1
    96d8:	97600705 	bl	fffffffffd80b2ec <DEVICE+0xff9ffffffd80aee3>
    96dc:	00000001 	udf	#1
    96e0:	97800705 	bl	fffffffffe00b2f4 <DEVICE+0xff9ffffffe00aeeb>
    96e4:	00000001 	udf	#1
    96e8:	97a00705 	bl	fffffffffe80b2fc <DEVICE+0xff9ffffffe80aef3>
    96ec:	00000001 	udf	#1
    96f0:	97c00705 	bl	ffffffffff00b304 <DEVICE+0xff9fffffff00aefb>
    96f4:	00000001 	udf	#1
    96f8:	97e00705 	bl	ffffffffff80b30c <DEVICE+0xff9fffffff80af03>
    96fc:	00000001 	udf	#1
    9700:	98000705 	ldrsw	x5, 97e0 <MMUTableL2.2+0x26e0>
    9704:	00000001 	udf	#1
    9708:	98200705 	ldrsw	x5, 497e8 <__stack_end+0x32a58>
    970c:	00000001 	udf	#1
    9710:	98400705 	ldrsw	x5, 897f0 <__stack_end+0x72a60>
    9714:	00000001 	udf	#1
    9718:	98600705 	ldrsw	x5, c97f8 <__stack_end+0xb2a68>
    971c:	00000001 	udf	#1
    9720:	98800705 	ldrsw	x5, fffffffffff09800 <DEVICE+0xff9ffffffff093f7>
    9724:	00000001 	udf	#1
    9728:	98a00705 	ldrsw	x5, fffffffffff49808 <DEVICE+0xff9ffffffff493ff>
    972c:	00000001 	udf	#1
    9730:	98c00705 	ldrsw	x5, fffffffffff89810 <DEVICE+0xff9ffffffff89407>
    9734:	00000001 	udf	#1
    9738:	98e00705 	ldrsw	x5, fffffffffffc9818 <DEVICE+0xff9ffffffffc940f>
    973c:	00000001 	udf	#1
    9740:	99000705 	.inst	0x99000705 ; undefined
    9744:	00000001 	udf	#1
    9748:	99200705 	.inst	0x99200705 ; undefined
    974c:	00000001 	udf	#1
    9750:	99400705 	.inst	0x99400705 ; undefined
    9754:	00000001 	udf	#1
    9758:	99600705 	.inst	0x99600705 ; undefined
    975c:	00000001 	udf	#1
    9760:	99800705 	.inst	0x99800705 ; undefined
    9764:	00000001 	udf	#1
    9768:	99a00705 	.inst	0x99a00705 ; undefined
    976c:	00000001 	udf	#1
    9770:	99c00705 	.inst	0x99c00705 ; undefined
    9774:	00000001 	udf	#1
    9778:	99e00705 	.inst	0x99e00705 ; undefined
    977c:	00000001 	udf	#1
    9780:	9a000705 	.inst	0x9a000705 ; undefined
    9784:	00000001 	udf	#1
    9788:	9a200705 	.inst	0x9a200705 ; undefined
    978c:	00000001 	udf	#1
    9790:	9a400705 	.inst	0x9a400705 ; undefined
    9794:	00000001 	udf	#1
    9798:	9a600705 	.inst	0x9a600705 ; undefined
    979c:	00000001 	udf	#1
    97a0:	9a800705 	csinc	x5, x24, x0, eq	// eq = none
    97a4:	00000001 	udf	#1
    97a8:	9aa00705 	.inst	0x9aa00705 ; undefined
    97ac:	00000001 	udf	#1
    97b0:	9ac00705 	.inst	0x9ac00705 ; undefined
    97b4:	00000001 	udf	#1
    97b8:	9ae00705 	.inst	0x9ae00705 ; undefined
    97bc:	00000001 	udf	#1
    97c0:	9b000705 	madd	x5, x24, x0, x1
    97c4:	00000001 	udf	#1
    97c8:	9b200705 	smaddl	x5, w24, w0, x1
    97cc:	00000001 	udf	#1
    97d0:	9b400705 	smulh	x5, x24, x0
    97d4:	00000001 	udf	#1
    97d8:	9b600705 	.inst	0x9b600705 ; undefined
    97dc:	00000001 	udf	#1
    97e0:	9b800705 	.inst	0x9b800705 ; undefined
    97e4:	00000001 	udf	#1
    97e8:	9ba00705 	umaddl	x5, w24, w0, x1
    97ec:	00000001 	udf	#1
    97f0:	9bc00705 	umulh	x5, x24, x0
    97f4:	00000001 	udf	#1
    97f8:	9be00705 	.inst	0x9be00705 ; undefined
    97fc:	00000001 	udf	#1
    9800:	9c000705 	ldr	q5, 98e0 <MMUTableL2.2+0x27e0>
    9804:	00000001 	udf	#1
    9808:	9c200705 	ldr	q5, 498e8 <__stack_end+0x32b58>
    980c:	00000001 	udf	#1
    9810:	9c400705 	ldr	q5, 898f0 <__stack_end+0x72b60>
    9814:	00000001 	udf	#1
    9818:	9c600705 	ldr	q5, c98f8 <__stack_end+0xb2b68>
    981c:	00000001 	udf	#1
    9820:	9c800705 	ldr	q5, fffffffffff09900 <DEVICE+0xff9ffffffff094f7>
    9824:	00000001 	udf	#1
    9828:	9ca00705 	ldr	q5, fffffffffff49908 <DEVICE+0xff9ffffffff494ff>
    982c:	00000001 	udf	#1
    9830:	9cc00705 	ldr	q5, fffffffffff89910 <DEVICE+0xff9ffffffff89507>
    9834:	00000001 	udf	#1
    9838:	9ce00705 	ldr	q5, fffffffffffc9918 <DEVICE+0xff9ffffffffc950f>
    983c:	00000001 	udf	#1
    9840:	9d000705 	.inst	0x9d000705 ; undefined
    9844:	00000001 	udf	#1
    9848:	9d200705 	.inst	0x9d200705 ; undefined
    984c:	00000001 	udf	#1
    9850:	9d400705 	.inst	0x9d400705 ; undefined
    9854:	00000001 	udf	#1
    9858:	9d600705 	.inst	0x9d600705 ; undefined
    985c:	00000001 	udf	#1
    9860:	9d800705 	.inst	0x9d800705 ; undefined
    9864:	00000001 	udf	#1
    9868:	9da00705 	.inst	0x9da00705 ; undefined
    986c:	00000001 	udf	#1
    9870:	9dc00705 	.inst	0x9dc00705 ; undefined
    9874:	00000001 	udf	#1
    9878:	9de00705 	.inst	0x9de00705 ; undefined
    987c:	00000001 	udf	#1
    9880:	9e000705 	.inst	0x9e000705 ; undefined
    9884:	00000001 	udf	#1
    9888:	9e200705 	.inst	0x9e200705 ; undefined
    988c:	00000001 	udf	#1
    9890:	9e400705 	.inst	0x9e400705 ; undefined
    9894:	00000001 	udf	#1
    9898:	9e600705 	.inst	0x9e600705 ; undefined
    989c:	00000001 	udf	#1
    98a0:	9e800705 	.inst	0x9e800705 ; undefined
    98a4:	00000001 	udf	#1
    98a8:	9ea00705 	.inst	0x9ea00705 ; undefined
    98ac:	00000001 	udf	#1
    98b0:	9ec00705 	.inst	0x9ec00705 ; undefined
    98b4:	00000001 	udf	#1
    98b8:	9ee00705 	.inst	0x9ee00705 ; undefined
    98bc:	00000001 	udf	#1
    98c0:	9f000705 	.inst	0x9f000705 ; undefined
    98c4:	00000001 	udf	#1
    98c8:	9f200705 	.inst	0x9f200705 ; undefined
    98cc:	00000001 	udf	#1
    98d0:	9f400705 	.inst	0x9f400705 ; undefined
    98d4:	00000001 	udf	#1
    98d8:	9f600705 	.inst	0x9f600705 ; undefined
    98dc:	00000001 	udf	#1
    98e0:	9f800705 	.inst	0x9f800705 ; undefined
    98e4:	00000001 	udf	#1
    98e8:	9fa00705 	.inst	0x9fa00705 ; undefined
    98ec:	00000001 	udf	#1
    98f0:	9fc00705 	.inst	0x9fc00705 ; undefined
    98f4:	00000001 	udf	#1
    98f8:	9fe00705 	.inst	0x9fe00705 ; undefined
    98fc:	00000001 	udf	#1
    9900:	a0000705 	ldnt1b	{z4.b-z5.b}, pn9/z, [x24, x0]
    9904:	00000001 	udf	#1
    9908:	a0200705 	stnt1b	{z4.b-z5.b}, pn9, [x24, x0]
    990c:	00000001 	udf	#1
    9910:	a0400705 	ldnt1b	{z4.b-z5.b}, pn9/z, [x24]
    9914:	00000001 	udf	#1
    9918:	a0600705 	stnt1b	{z4.b-z5.b}, pn9, [x24]
    991c:	00000001 	udf	#1
    9920:	a0800705 	.inst	0xa0800705 ; undefined
    9924:	00000001 	udf	#1
    9928:	a0a00705 	.inst	0xa0a00705 ; undefined
    992c:	00000001 	udf	#1
    9930:	a0c00705 	smopa	za5.d, p1/m, p0/m, z24.h, z0.h
    9934:	00000001 	udf	#1
    9938:	a0e00705 	sumopa	za5.d, p1/m, p0/m, z24.h, z0.h
    993c:	00000001 	udf	#1
    9940:	a1000705 	ld1b	{z5.b, z13.b}, pn9/z, [x24, x0]
    9944:	00000001 	udf	#1
    9948:	a1200705 	st1b	{z5.b, z13.b}, pn9, [x24, x0]
    994c:	00000001 	udf	#1
    9950:	a1400705 	ld1b	{z5.b, z13.b}, pn9/z, [x24]
    9954:	00000001 	udf	#1
    9958:	a1600705 	st1b	{z5.b, z13.b}, pn9, [x24]
    995c:	00000001 	udf	#1
    9960:	a1800705 	.inst	0xa1800705 ; undefined
    9964:	00000001 	udf	#1
    9968:	a1a00705 	.inst	0xa1a00705 ; undefined
    996c:	00000001 	udf	#1
    9970:	a1c00705 	usmopa	za5.d, p1/m, p0/m, z24.h, z0.h
    9974:	00000001 	udf	#1
    9978:	a1e00705 	umopa	za5.d, p1/m, p0/m, z24.h, z0.h
    997c:	00000001 	udf	#1
    9980:	a2000705 	.inst	0xa2000705 ; undefined
    9984:	00000001 	udf	#1
    9988:	a2200705 	.inst	0xa2200705 ; undefined
    998c:	00000001 	udf	#1
    9990:	a2400705 	.inst	0xa2400705 ; undefined
    9994:	00000001 	udf	#1
    9998:	a2600705 	.inst	0xa2600705 ; undefined
    999c:	00000001 	udf	#1
    99a0:	a2800705 	.inst	0xa2800705 ; undefined
    99a4:	00000001 	udf	#1
    99a8:	a2a00705 	.inst	0xa2a00705 ; undefined
    99ac:	00000001 	udf	#1
    99b0:	a2c00705 	.inst	0xa2c00705 ; undefined
    99b4:	00000001 	udf	#1
    99b8:	a2e00705 	.inst	0xa2e00705 ; undefined
    99bc:	00000001 	udf	#1
    99c0:	a3000705 	.inst	0xa3000705 ; undefined
    99c4:	00000001 	udf	#1
    99c8:	a3200705 	.inst	0xa3200705 ; undefined
    99cc:	00000001 	udf	#1
    99d0:	a3400705 	.inst	0xa3400705 ; undefined
    99d4:	00000001 	udf	#1
    99d8:	a3600705 	.inst	0xa3600705 ; undefined
    99dc:	00000001 	udf	#1
    99e0:	a3800705 	.inst	0xa3800705 ; undefined
    99e4:	00000001 	udf	#1
    99e8:	a3a00705 	.inst	0xa3a00705 ; undefined
    99ec:	00000001 	udf	#1
    99f0:	a3c00705 	.inst	0xa3c00705 ; undefined
    99f4:	00000001 	udf	#1
    99f8:	a3e00705 	.inst	0xa3e00705 ; undefined
    99fc:	00000001 	udf	#1
    9a00:	a4000705 	ld1rqb	{z5.b}, p1/z, [x24, x0]
    9a04:	00000001 	udf	#1
    9a08:	a4200705 	ld1rob	{z5.b}, p1/z, [x24, x0]
    9a0c:	00000001 	udf	#1
    9a10:	a4400705 	.inst	0xa4400705 ; undefined
    9a14:	00000001 	udf	#1
    9a18:	a4600705 	.inst	0xa4600705 ; undefined
    9a1c:	00000001 	udf	#1
    9a20:	a4800705 	ld1rqh	{z5.h}, p1/z, [x24, x0, lsl #1]
    9a24:	00000001 	udf	#1
    9a28:	a4a00705 	ld1roh	{z5.h}, p1/z, [x24, x0, lsl #1]
    9a2c:	00000001 	udf	#1
    9a30:	a4c00705 	.inst	0xa4c00705 ; undefined
    9a34:	00000001 	udf	#1
    9a38:	a4e00705 	.inst	0xa4e00705 ; undefined
    9a3c:	00000001 	udf	#1
    9a40:	a5000705 	ld1rqw	{z5.s}, p1/z, [x24, x0, lsl #2]
    9a44:	00000001 	udf	#1
    9a48:	a5200705 	ld1row	{z5.s}, p1/z, [x24, x0, lsl #2]
    9a4c:	00000001 	udf	#1
    9a50:	a5400705 	.inst	0xa5400705 ; undefined
    9a54:	00000001 	udf	#1
    9a58:	a5600705 	.inst	0xa5600705 ; undefined
    9a5c:	00000001 	udf	#1
    9a60:	a5800705 	ld1rqd	{z5.d}, p1/z, [x24, x0, lsl #3]
    9a64:	00000001 	udf	#1
    9a68:	a5a00705 	ld1rod	{z5.d}, p1/z, [x24, x0, lsl #3]
    9a6c:	00000001 	udf	#1
    9a70:	a5c00705 	.inst	0xa5c00705 ; undefined
    9a74:	00000001 	udf	#1
    9a78:	a5e00705 	.inst	0xa5e00705 ; undefined
    9a7c:	00000001 	udf	#1
    9a80:	a6000705 	.inst	0xa6000705 ; undefined
    9a84:	00000001 	udf	#1
    9a88:	a6200705 	.inst	0xa6200705 ; undefined
    9a8c:	00000001 	udf	#1
    9a90:	a6400705 	.inst	0xa6400705 ; undefined
    9a94:	00000001 	udf	#1
    9a98:	a6600705 	.inst	0xa6600705 ; undefined
    9a9c:	00000001 	udf	#1
    9aa0:	a6800705 	.inst	0xa6800705 ; undefined
    9aa4:	00000001 	udf	#1
    9aa8:	a6a00705 	.inst	0xa6a00705 ; undefined
    9aac:	00000001 	udf	#1
    9ab0:	a6c00705 	.inst	0xa6c00705 ; undefined
    9ab4:	00000001 	udf	#1
    9ab8:	a6e00705 	.inst	0xa6e00705 ; undefined
    9abc:	00000001 	udf	#1
    9ac0:	a7000705 	.inst	0xa7000705 ; undefined
    9ac4:	00000001 	udf	#1
    9ac8:	a7200705 	.inst	0xa7200705 ; undefined
    9acc:	00000001 	udf	#1
    9ad0:	a7400705 	.inst	0xa7400705 ; undefined
    9ad4:	00000001 	udf	#1
    9ad8:	a7600705 	.inst	0xa7600705 ; undefined
    9adc:	00000001 	udf	#1
    9ae0:	a7800705 	.inst	0xa7800705 ; undefined
    9ae4:	00000001 	udf	#1
    9ae8:	a7a00705 	.inst	0xa7a00705 ; undefined
    9aec:	00000001 	udf	#1
    9af0:	a7c00705 	.inst	0xa7c00705 ; undefined
    9af4:	00000001 	udf	#1
    9af8:	a7e00705 	.inst	0xa7e00705 ; undefined
    9afc:	00000001 	udf	#1
    9b00:	a8000705 	stnp	x5, x1, [x24]
    9b04:	00000001 	udf	#1
    9b08:	a8200705 	stnp	x5, x1, [x24, #-512]
    9b0c:	00000001 	udf	#1
    9b10:	a8400705 	ldnp	x5, x1, [x24]
    9b14:	00000001 	udf	#1
    9b18:	a8600705 	ldnp	x5, x1, [x24, #-512]
    9b1c:	00000001 	udf	#1
    9b20:	a8800705 	stp	x5, x1, [x24], #0
    9b24:	00000001 	udf	#1
    9b28:	a8a00705 	stp	x5, x1, [x24], #-512
    9b2c:	00000001 	udf	#1
    9b30:	a8c00705 	ldp	x5, x1, [x24], #0
    9b34:	00000001 	udf	#1
    9b38:	a8e00705 	ldp	x5, x1, [x24], #-512
    9b3c:	00000001 	udf	#1
    9b40:	a9000705 	stp	x5, x1, [x24]
    9b44:	00000001 	udf	#1
    9b48:	a9200705 	stp	x5, x1, [x24, #-512]
    9b4c:	00000001 	udf	#1
    9b50:	a9400705 	ldp	x5, x1, [x24]
    9b54:	00000001 	udf	#1
    9b58:	a9600705 	ldp	x5, x1, [x24, #-512]
    9b5c:	00000001 	udf	#1
    9b60:	a9800705 	stp	x5, x1, [x24, #0]!
    9b64:	00000001 	udf	#1
    9b68:	a9a00705 	stp	x5, x1, [x24, #-512]!
    9b6c:	00000001 	udf	#1
    9b70:	a9c00705 	ldp	x5, x1, [x24, #0]!
    9b74:	00000001 	udf	#1
    9b78:	a9e00705 	ldp	x5, x1, [x24, #-512]!
    9b7c:	00000001 	udf	#1
    9b80:	aa000705 	orr	x5, x24, x0, lsl #1
    9b84:	00000001 	udf	#1
    9b88:	aa200705 	orn	x5, x24, x0, lsl #1
    9b8c:	00000001 	udf	#1
    9b90:	aa400705 	orr	x5, x24, x0, lsr #1
    9b94:	00000001 	udf	#1
    9b98:	aa600705 	orn	x5, x24, x0, lsr #1
    9b9c:	00000001 	udf	#1
    9ba0:	aa800705 	orr	x5, x24, x0, asr #1
    9ba4:	00000001 	udf	#1
    9ba8:	aaa00705 	orn	x5, x24, x0, asr #1
    9bac:	00000001 	udf	#1
    9bb0:	aac00705 	orr	x5, x24, x0, ror #1
    9bb4:	00000001 	udf	#1
    9bb8:	aae00705 	orn	x5, x24, x0, ror #1
    9bbc:	00000001 	udf	#1
    9bc0:	ab000705 	adds	x5, x24, x0, lsl #1
    9bc4:	00000001 	udf	#1
    9bc8:	ab200705 	adds	x5, x24, w0, uxtb #1
    9bcc:	00000001 	udf	#1
    9bd0:	ab400705 	adds	x5, x24, x0, lsr #1
    9bd4:	00000001 	udf	#1
    9bd8:	ab600705 	.inst	0xab600705 ; undefined
    9bdc:	00000001 	udf	#1
    9be0:	ab800705 	adds	x5, x24, x0, asr #1
    9be4:	00000001 	udf	#1
    9be8:	aba00705 	.inst	0xaba00705 ; undefined
    9bec:	00000001 	udf	#1
    9bf0:	abc00705 	.inst	0xabc00705 ; undefined
    9bf4:	00000001 	udf	#1
    9bf8:	abe00705 	.inst	0xabe00705 ; undefined
    9bfc:	00000001 	udf	#1
    9c00:	ac000705 	stnp	q5, q1, [x24]
    9c04:	00000001 	udf	#1
    9c08:	ac200705 	stnp	q5, q1, [x24, #-1024]
    9c0c:	00000001 	udf	#1
    9c10:	ac400705 	ldnp	q5, q1, [x24]
    9c14:	00000001 	udf	#1
    9c18:	ac600705 	ldnp	q5, q1, [x24, #-1024]
    9c1c:	00000001 	udf	#1
    9c20:	ac800705 	stp	q5, q1, [x24], #0
    9c24:	00000001 	udf	#1
    9c28:	aca00705 	stp	q5, q1, [x24], #-1024
    9c2c:	00000001 	udf	#1
    9c30:	acc00705 	ldp	q5, q1, [x24], #0
    9c34:	00000001 	udf	#1
    9c38:	ace00705 	ldp	q5, q1, [x24], #-1024
    9c3c:	00000001 	udf	#1
    9c40:	ad000705 	stp	q5, q1, [x24]
    9c44:	00000001 	udf	#1
    9c48:	ad200705 	stp	q5, q1, [x24, #-1024]
    9c4c:	00000001 	udf	#1
    9c50:	ad400705 	ldp	q5, q1, [x24]
    9c54:	00000001 	udf	#1
    9c58:	ad600705 	ldp	q5, q1, [x24, #-1024]
    9c5c:	00000001 	udf	#1
    9c60:	ad800705 	stp	q5, q1, [x24, #0]!
    9c64:	00000001 	udf	#1
    9c68:	ada00705 	stp	q5, q1, [x24, #-1024]!
    9c6c:	00000001 	udf	#1
    9c70:	adc00705 	ldp	q5, q1, [x24, #0]!
    9c74:	00000001 	udf	#1
    9c78:	ade00705 	ldp	q5, q1, [x24, #-1024]!
    9c7c:	00000001 	udf	#1
    9c80:	ae000705 	.inst	0xae000705 ; undefined
    9c84:	00000001 	udf	#1
    9c88:	ae200705 	.inst	0xae200705 ; undefined
    9c8c:	00000001 	udf	#1
    9c90:	ae400705 	.inst	0xae400705 ; undefined
    9c94:	00000001 	udf	#1
    9c98:	ae600705 	.inst	0xae600705 ; undefined
    9c9c:	00000001 	udf	#1
    9ca0:	ae800705 	.inst	0xae800705 ; undefined
    9ca4:	00000001 	udf	#1
    9ca8:	aea00705 	.inst	0xaea00705 ; undefined
    9cac:	00000001 	udf	#1
    9cb0:	aec00705 	.inst	0xaec00705 ; undefined
    9cb4:	00000001 	udf	#1
    9cb8:	aee00705 	.inst	0xaee00705 ; undefined
    9cbc:	00000001 	udf	#1
    9cc0:	af000705 	.inst	0xaf000705 ; undefined
    9cc4:	00000001 	udf	#1
    9cc8:	af200705 	.inst	0xaf200705 ; undefined
    9ccc:	00000001 	udf	#1
    9cd0:	af400705 	.inst	0xaf400705 ; undefined
    9cd4:	00000001 	udf	#1
    9cd8:	af600705 	.inst	0xaf600705 ; undefined
    9cdc:	00000001 	udf	#1
    9ce0:	af800705 	.inst	0xaf800705 ; undefined
    9ce4:	00000001 	udf	#1
    9ce8:	afa00705 	.inst	0xafa00705 ; undefined
    9cec:	00000001 	udf	#1
    9cf0:	afc00705 	.inst	0xafc00705 ; undefined
    9cf4:	00000001 	udf	#1
    9cf8:	afe00705 	.inst	0xafe00705 ; undefined
    9cfc:	00000001 	udf	#1
    9d00:	b0000705 	adrp	x5, ea000 <__stack_end+0xd3270>
    9d04:	00000001 	udf	#1
    9d08:	b0200705 	adrp	x5, 400ea000 <__buffer_end+0x3fdea000>
    9d0c:	00000001 	udf	#1
    9d10:	b0400705 	adrp	x5, 800ea000 <__buffer_end+0x7fdea000>
    9d14:	00000001 	udf	#1
    9d18:	b0600705 	adrp	x5, c00ea000 <__buffer_end+0xbfdea000>
    9d1c:	00000001 	udf	#1
    9d20:	b0800705 	adrp	x5, ffffffff000ea000 <DEVICE+0xff9fffff000e9bf7>
    9d24:	00000001 	udf	#1
    9d28:	b0a00705 	adrp	x5, ffffffff400ea000 <DEVICE+0xff9fffff400e9bf7>
    9d2c:	00000001 	udf	#1
    9d30:	b0c00705 	adrp	x5, ffffffff800ea000 <DEVICE+0xff9fffff800e9bf7>
    9d34:	00000001 	udf	#1
    9d38:	b0e00705 	adrp	x5, ffffffffc00ea000 <DEVICE+0xff9fffffc00e9bf7>
    9d3c:	00000001 	udf	#1
    9d40:	b1000705 	adds	x5, x24, #0x1
    9d44:	00000001 	udf	#1
    9d48:	b1200705 	adds	x5, x24, #0x801
    9d4c:	00000001 	udf	#1
    9d50:	b1400705 	adds	x5, x24, #0x1, lsl #12
    9d54:	00000001 	udf	#1
    9d58:	b1600705 	adds	x5, x24, #0x801, lsl #12
    9d5c:	00000001 	udf	#1
    9d60:	b1800705 	.inst	0xb1800705 ; undefined
    9d64:	00000001 	udf	#1
    9d68:	b1a00705 	.inst	0xb1a00705 ; undefined
    9d6c:	00000001 	udf	#1
    9d70:	b1c00705 	.inst	0xb1c00705 ; undefined
    9d74:	00000001 	udf	#1
    9d78:	b1e00705 	.inst	0xb1e00705 ; undefined
    9d7c:	00000001 	udf	#1
    9d80:	b2000705 	orr	x5, x24, #0x300000003
    9d84:	00000001 	udf	#1
    9d88:	b2200705 	orr	x5, x24, #0x300000003
    9d8c:	00000001 	udf	#1
    9d90:	b2400705 	orr	x5, x24, #0x3
    9d94:	00000001 	udf	#1
    9d98:	b2600705 	orr	x5, x24, #0x300000000
    9d9c:	00000001 	udf	#1
    9da0:	b2800705 	.inst	0xb2800705 ; undefined
    9da4:	00000001 	udf	#1
    9da8:	b2a00705 	.inst	0xb2a00705 ; undefined
    9dac:	00000001 	udf	#1
    9db0:	b2c00705 	.inst	0xb2c00705 ; undefined
    9db4:	00000001 	udf	#1
    9db8:	b2e00705 	.inst	0xb2e00705 ; undefined
    9dbc:	00000001 	udf	#1
    9dc0:	b3000705 	.inst	0xb3000705 ; undefined
    9dc4:	00000001 	udf	#1
    9dc8:	b3200705 	.inst	0xb3200705 ; undefined
    9dcc:	00000001 	udf	#1
    9dd0:	b3400705 	bfxil	x5, x24, #0, #2
    9dd4:	00000001 	udf	#1
    9dd8:	b3600705 	bfi	x5, x24, #32, #2
    9ddc:	00000001 	udf	#1
    9de0:	b3800705 	.inst	0xb3800705 ; undefined
    9de4:	00000001 	udf	#1
    9de8:	b3a00705 	.inst	0xb3a00705 ; undefined
    9dec:	00000001 	udf	#1
    9df0:	b3c00705 	.inst	0xb3c00705 ; undefined
    9df4:	00000001 	udf	#1
    9df8:	b3e00705 	.inst	0xb3e00705 ; undefined
    9dfc:	00000001 	udf	#1
    9e00:	b4000705 	cbz	x5, 9ee0 <MMUTableL2.2+0x2de0>
    9e04:	00000001 	udf	#1
    9e08:	b4200705 	cbz	x5, 49ee8 <__stack_end+0x33158>
    9e0c:	00000001 	udf	#1
    9e10:	b4400705 	cbz	x5, 89ef0 <__stack_end+0x73160>
    9e14:	00000001 	udf	#1
    9e18:	b4600705 	cbz	x5, c9ef8 <__stack_end+0xb3168>
    9e1c:	00000001 	udf	#1
    9e20:	b4800705 	cbz	x5, fffffffffff09f00 <DEVICE+0xff9ffffffff09af7>
    9e24:	00000001 	udf	#1
    9e28:	b4a00705 	cbz	x5, fffffffffff49f08 <DEVICE+0xff9ffffffff49aff>
    9e2c:	00000001 	udf	#1
    9e30:	b4c00705 	cbz	x5, fffffffffff89f10 <DEVICE+0xff9ffffffff89b07>
    9e34:	00000001 	udf	#1
    9e38:	b4e00705 	cbz	x5, fffffffffffc9f18 <DEVICE+0xff9ffffffffc9b0f>
    9e3c:	00000001 	udf	#1
    9e40:	b5000705 	cbnz	x5, 9f20 <MMUTableL2.2+0x2e20>
    9e44:	00000001 	udf	#1
    9e48:	b5200705 	cbnz	x5, 49f28 <__stack_end+0x33198>
    9e4c:	00000001 	udf	#1
    9e50:	b5400705 	cbnz	x5, 89f30 <__stack_end+0x731a0>
    9e54:	00000001 	udf	#1
    9e58:	b5600705 	cbnz	x5, c9f38 <__stack_end+0xb31a8>
    9e5c:	00000001 	udf	#1
    9e60:	b5800705 	cbnz	x5, fffffffffff09f40 <DEVICE+0xff9ffffffff09b37>
    9e64:	00000001 	udf	#1
    9e68:	b5a00705 	cbnz	x5, fffffffffff49f48 <DEVICE+0xff9ffffffff49b3f>
    9e6c:	00000001 	udf	#1
    9e70:	b5c00705 	cbnz	x5, fffffffffff89f50 <DEVICE+0xff9ffffffff89b47>
    9e74:	00000001 	udf	#1
    9e78:	b5e00705 	cbnz	x5, fffffffffffc9f58 <DEVICE+0xff9ffffffffc9b4f>
    9e7c:	00000001 	udf	#1
    9e80:	b6000705 	tbz	x5, #32, 9f60 <MMUTableL2.2+0x2e60>
    9e84:	00000001 	udf	#1
    9e88:	b6200705 	tbz	x5, #36, 9f68 <MMUTableL2.2+0x2e68>
    9e8c:	00000001 	udf	#1
    9e90:	b6400705 	tbz	x5, #40, 9f70 <MMUTableL2.2+0x2e70>
    9e94:	00000001 	udf	#1
    9e98:	b6600705 	tbz	x5, #44, 9f78 <MMUTableL2.2+0x2e78>
    9e9c:	00000001 	udf	#1
    9ea0:	b6800705 	tbz	x5, #48, 9f80 <MMUTableL2.2+0x2e80>
    9ea4:	00000001 	udf	#1
    9ea8:	b6a00705 	tbz	x5, #52, 9f88 <MMUTableL2.2+0x2e88>
    9eac:	00000001 	udf	#1
    9eb0:	b6c00705 	tbz	x5, #56, 9f90 <MMUTableL2.2+0x2e90>
    9eb4:	00000001 	udf	#1
    9eb8:	b6e00705 	tbz	x5, #60, 9f98 <MMUTableL2.2+0x2e98>
    9ebc:	00000001 	udf	#1
    9ec0:	b7000705 	tbnz	x5, #32, 9fa0 <MMUTableL2.2+0x2ea0>
    9ec4:	00000001 	udf	#1
    9ec8:	b7200705 	tbnz	x5, #36, 9fa8 <MMUTableL2.2+0x2ea8>
    9ecc:	00000001 	udf	#1
    9ed0:	b7400705 	tbnz	x5, #40, 9fb0 <MMUTableL2.2+0x2eb0>
    9ed4:	00000001 	udf	#1
    9ed8:	b7600705 	tbnz	x5, #44, 9fb8 <MMUTableL2.2+0x2eb8>
    9edc:	00000001 	udf	#1
    9ee0:	b7800705 	tbnz	x5, #48, 9fc0 <MMUTableL2.2+0x2ec0>
    9ee4:	00000001 	udf	#1
    9ee8:	b7a00705 	tbnz	x5, #52, 9fc8 <MMUTableL2.2+0x2ec8>
    9eec:	00000001 	udf	#1
    9ef0:	b7c00705 	tbnz	x5, #56, 9fd0 <MMUTableL2.2+0x2ed0>
    9ef4:	00000001 	udf	#1
    9ef8:	b7e00705 	tbnz	x5, #60, 9fd8 <MMUTableL2.2+0x2ed8>
    9efc:	00000001 	udf	#1
    9f00:	b8000705 	str	w5, [x24], #0
    9f04:	00000001 	udf	#1
    9f08:	b8200705 	.inst	0xb8200705 ; undefined
    9f0c:	00000001 	udf	#1
    9f10:	b8400705 	ldr	w5, [x24], #0
    9f14:	00000001 	udf	#1
    9f18:	b8600705 	.inst	0xb8600705 ; undefined
    9f1c:	00000001 	udf	#1
    9f20:	b8800705 	ldrsw	x5, [x24], #0
    9f24:	00000001 	udf	#1
    9f28:	b8a00705 	.inst	0xb8a00705 ; undefined
    9f2c:	00000001 	udf	#1
    9f30:	b8c00705 	.inst	0xb8c00705 ; undefined
    9f34:	00000001 	udf	#1
    9f38:	b8e00705 	.inst	0xb8e00705 ; undefined
    9f3c:	00000001 	udf	#1
    9f40:	b9000705 	str	w5, [x24, #4]
    9f44:	00000001 	udf	#1
    9f48:	b9200705 	str	w5, [x24, #8196]
    9f4c:	00000001 	udf	#1
    9f50:	b9400705 	ldr	w5, [x24, #4]
    9f54:	00000001 	udf	#1
    9f58:	b9600705 	ldr	w5, [x24, #8196]
    9f5c:	00000001 	udf	#1
    9f60:	b9800705 	ldrsw	x5, [x24, #4]
    9f64:	00000001 	udf	#1
    9f68:	b9a00705 	ldrsw	x5, [x24, #8196]
    9f6c:	00000001 	udf	#1
    9f70:	b9c00705 	.inst	0xb9c00705 ; undefined
    9f74:	00000001 	udf	#1
    9f78:	b9e00705 	.inst	0xb9e00705 ; undefined
    9f7c:	00000001 	udf	#1
    9f80:	ba000705 	rmif	x24, #0, #5
    9f84:	00000001 	udf	#1
    9f88:	ba200705 	.inst	0xba200705 ; undefined
    9f8c:	00000001 	udf	#1
    9f90:	ba400705 	.inst	0xba400705 ; undefined
    9f94:	00000001 	udf	#1
    9f98:	ba600705 	.inst	0xba600705 ; undefined
    9f9c:	00000001 	udf	#1
    9fa0:	ba800705 	.inst	0xba800705 ; undefined
    9fa4:	00000001 	udf	#1
    9fa8:	baa00705 	.inst	0xbaa00705 ; undefined
    9fac:	00000001 	udf	#1
    9fb0:	bac00705 	.inst	0xbac00705 ; undefined
    9fb4:	00000001 	udf	#1
    9fb8:	bae00705 	.inst	0xbae00705 ; undefined
    9fbc:	00000001 	udf	#1
    9fc0:	bb000705 	.inst	0xbb000705 ; undefined
    9fc4:	00000001 	udf	#1
    9fc8:	bb200705 	.inst	0xbb200705 ; undefined
    9fcc:	00000001 	udf	#1
    9fd0:	bb400705 	.inst	0xbb400705 ; undefined
    9fd4:	00000001 	udf	#1
    9fd8:	bb600705 	.inst	0xbb600705 ; undefined
    9fdc:	00000001 	udf	#1
    9fe0:	bb800705 	.inst	0xbb800705 ; undefined
    9fe4:	00000001 	udf	#1
    9fe8:	bba00705 	.inst	0xbba00705 ; undefined
    9fec:	00000001 	udf	#1
    9ff0:	bbc00705 	.inst	0xbbc00705 ; undefined
    9ff4:	00000001 	udf	#1
    9ff8:	bbe00705 	.inst	0xbbe00705 ; undefined
    9ffc:	00000001 	udf	#1
    a000:	bc000705 	str	s5, [x24], #0
    a004:	00000001 	udf	#1
    a008:	bc200705 	.inst	0xbc200705 ; undefined
    a00c:	00000001 	udf	#1
    a010:	bc400705 	ldr	s5, [x24], #0
    a014:	00000001 	udf	#1
    a018:	bc600705 	.inst	0xbc600705 ; undefined
    a01c:	00000001 	udf	#1
    a020:	bc800705 	.inst	0xbc800705 ; undefined
    a024:	00000001 	udf	#1
    a028:	bca00705 	.inst	0xbca00705 ; undefined
    a02c:	00000001 	udf	#1
    a030:	bcc00705 	.inst	0xbcc00705 ; undefined
    a034:	00000001 	udf	#1
    a038:	bce00705 	.inst	0xbce00705 ; undefined
    a03c:	00000001 	udf	#1
    a040:	bd000705 	str	s5, [x24, #4]
    a044:	00000001 	udf	#1
    a048:	bd200705 	str	s5, [x24, #8196]
    a04c:	00000001 	udf	#1
    a050:	bd400705 	ldr	s5, [x24, #4]
    a054:	00000001 	udf	#1
    a058:	bd600705 	ldr	s5, [x24, #8196]
    a05c:	00000001 	udf	#1
    a060:	bd800705 	.inst	0xbd800705 ; undefined
    a064:	00000001 	udf	#1
    a068:	bda00705 	.inst	0xbda00705 ; undefined
    a06c:	00000001 	udf	#1
    a070:	bdc00705 	.inst	0xbdc00705 ; undefined
    a074:	00000001 	udf	#1
    a078:	bde00705 	.inst	0xbde00705 ; undefined
    a07c:	00000001 	udf	#1
    a080:	be000705 	.inst	0xbe000705 ; undefined
    a084:	00000001 	udf	#1
    a088:	be200705 	.inst	0xbe200705 ; undefined
    a08c:	00000001 	udf	#1
    a090:	be400705 	.inst	0xbe400705 ; undefined
    a094:	00000001 	udf	#1
    a098:	be600705 	.inst	0xbe600705 ; undefined
    a09c:	00000001 	udf	#1
    a0a0:	be800705 	.inst	0xbe800705 ; undefined
    a0a4:	00000001 	udf	#1
    a0a8:	bea00705 	.inst	0xbea00705 ; undefined
    a0ac:	00000001 	udf	#1
    a0b0:	bec00705 	.inst	0xbec00705 ; undefined
    a0b4:	00000001 	udf	#1
    a0b8:	bee00705 	.inst	0xbee00705 ; undefined
    a0bc:	00000001 	udf	#1
    a0c0:	bf000705 	.inst	0xbf000705 ; undefined
    a0c4:	00000001 	udf	#1
    a0c8:	bf200705 	.inst	0xbf200705 ; undefined
    a0cc:	00000001 	udf	#1
    a0d0:	bf400705 	.inst	0xbf400705 ; undefined
    a0d4:	00000001 	udf	#1
    a0d8:	bf600705 	.inst	0xbf600705 ; undefined
    a0dc:	00000001 	udf	#1
    a0e0:	bf800705 	.inst	0xbf800705 ; undefined
    a0e4:	00000001 	udf	#1
    a0e8:	bfa00705 	.inst	0xbfa00705 ; undefined
    a0ec:	00000001 	udf	#1
    a0f0:	bfc00705 	.inst	0xbfc00705 ; undefined
    a0f4:	00000001 	udf	#1
    a0f8:	bfe00705 	.inst	0xbfe00705 ; undefined
    a0fc:	00000001 	udf	#1
    a100:	c0000705 	mov	za0h.b[w12, 5], p1/m, z24.b
    a104:	00000001 	udf	#1
    a108:	c0200705 	.inst	0xc0200705 ; undefined
    a10c:	00000001 	udf	#1
    a110:	c0400705 	mov	za0h.h[w12, 5], p1/m, z24.h
    a114:	00000001 	udf	#1
    a118:	c0600705 	.inst	0xc0600705 ; undefined
    a11c:	00000001 	udf	#1
    a120:	c0800705 	mov	za1h.s[w12, 1], p1/m, z24.s
    a124:	00000001 	udf	#1
    a128:	c0a00705 	.inst	0xc0a00705 ; undefined
    a12c:	00000001 	udf	#1
    a130:	c0c00705 	mov	za2h.d[w12, 1], p1/m, z24.d
    a134:	00000001 	udf	#1
    a138:	c0e00705 	.inst	0xc0e00705 ; undefined
    a13c:	00000001 	udf	#1
    a140:	c1000705 	usmlall	za.s[w8, 4:7], z24.b, z0.b[1]
    a144:	00000001 	udf	#1
    a148:	c1200705 	usmlall	za.s[w8, 4:7], z24.b, z0.b
    a14c:	00000001 	udf	#1
    a150:	c1400705 	.inst	0xc1400705 ; undefined
    a154:	00000001 	udf	#1
    a158:	c1600705 	.inst	0xc1600705 ; undefined
    a15c:	00000001 	udf	#1
    a160:	c1800705 	.inst	0xc1800705 ; undefined
    a164:	00000001 	udf	#1
    a168:	c1a00705 	.inst	0xc1a00705 ; undefined
    a16c:	00000001 	udf	#1
    a170:	c1c00705 	.inst	0xc1c00705 ; undefined
    a174:	00000001 	udf	#1
    a178:	c1e00705 	.inst	0xc1e00705 ; undefined
    a17c:	00000001 	udf	#1
    a180:	c2000705 	.inst	0xc2000705 ; undefined
    a184:	00000001 	udf	#1
    a188:	c2200705 	.inst	0xc2200705 ; undefined
    a18c:	00000001 	udf	#1
    a190:	c2400705 	.inst	0xc2400705 ; undefined
    a194:	00000001 	udf	#1
    a198:	c2600705 	.inst	0xc2600705 ; undefined
    a19c:	00000001 	udf	#1
    a1a0:	c2800705 	.inst	0xc2800705 ; undefined
    a1a4:	00000001 	udf	#1
    a1a8:	c2a00705 	.inst	0xc2a00705 ; undefined
    a1ac:	00000001 	udf	#1
    a1b0:	c2c00705 	.inst	0xc2c00705 ; undefined
    a1b4:	00000001 	udf	#1
    a1b8:	c2e00705 	.inst	0xc2e00705 ; undefined
    a1bc:	00000001 	udf	#1
    a1c0:	c3000705 	.inst	0xc3000705 ; undefined
    a1c4:	00000001 	udf	#1
    a1c8:	c3200705 	.inst	0xc3200705 ; undefined
    a1cc:	00000001 	udf	#1
    a1d0:	c3400705 	.inst	0xc3400705 ; undefined
    a1d4:	00000001 	udf	#1
    a1d8:	c3600705 	.inst	0xc3600705 ; undefined
    a1dc:	00000001 	udf	#1
    a1e0:	c3800705 	.inst	0xc3800705 ; undefined
    a1e4:	00000001 	udf	#1
    a1e8:	c3a00705 	.inst	0xc3a00705 ; undefined
    a1ec:	00000001 	udf	#1
    a1f0:	c3c00705 	.inst	0xc3c00705 ; undefined
    a1f4:	00000001 	udf	#1
    a1f8:	c3e00705 	.inst	0xc3e00705 ; undefined
    a1fc:	00000001 	udf	#1
    a200:	c4000705 	ld1sb	{z5.d}, p1/z, [x24, z0.d, uxtw]
    a204:	00000001 	udf	#1
    a208:	c4200705 	prfb	pldl3strm, p1, [x24, z0.d, uxtw]
    a20c:	00000001 	udf	#1
    a210:	c4400705 	ld1sb	{z5.d}, p1/z, [x24, z0.d, sxtw]
    a214:	00000001 	udf	#1
    a218:	c4600705 	prfb	pldl3strm, p1, [x24, z0.d, sxtw]
    a21c:	00000001 	udf	#1
    a220:	c4800705 	ld1sh	{z5.d}, p1/z, [x24, z0.d, uxtw]
    a224:	00000001 	udf	#1
    a228:	c4a00705 	ld1sh	{z5.d}, p1/z, [x24, z0.d, uxtw #1]
    a22c:	00000001 	udf	#1
    a230:	c4c00705 	ld1sh	{z5.d}, p1/z, [x24, z0.d, sxtw]
    a234:	00000001 	udf	#1
    a238:	c4e00705 	ld1sh	{z5.d}, p1/z, [x24, z0.d, sxtw #1]
    a23c:	00000001 	udf	#1
    a240:	c5000705 	ld1sw	{z5.d}, p1/z, [x24, z0.d, uxtw]
    a244:	00000001 	udf	#1
    a248:	c5200705 	ld1sw	{z5.d}, p1/z, [x24, z0.d, uxtw #2]
    a24c:	00000001 	udf	#1
    a250:	c5400705 	ld1sw	{z5.d}, p1/z, [x24, z0.d, sxtw]
    a254:	00000001 	udf	#1
    a258:	c5600705 	ld1sw	{z5.d}, p1/z, [x24, z0.d, sxtw #2]
    a25c:	00000001 	udf	#1
    a260:	c5800705 	.inst	0xc5800705 ; undefined
    a264:	00000001 	udf	#1
    a268:	c5a00705 	.inst	0xc5a00705 ; undefined
    a26c:	00000001 	udf	#1
    a270:	c5c00705 	.inst	0xc5c00705 ; undefined
    a274:	00000001 	udf	#1
    a278:	c5e00705 	.inst	0xc5e00705 ; undefined
    a27c:	00000001 	udf	#1
    a280:	c6000705 	.inst	0xc6000705 ; undefined
    a284:	00000001 	udf	#1
    a288:	c6200705 	.inst	0xc6200705 ; undefined
    a28c:	00000001 	udf	#1
    a290:	c6400705 	.inst	0xc6400705 ; undefined
    a294:	00000001 	udf	#1
    a298:	c6600705 	.inst	0xc6600705 ; undefined
    a29c:	00000001 	udf	#1
    a2a0:	c6800705 	.inst	0xc6800705 ; undefined
    a2a4:	00000001 	udf	#1
    a2a8:	c6a00705 	.inst	0xc6a00705 ; undefined
    a2ac:	00000001 	udf	#1
    a2b0:	c6c00705 	.inst	0xc6c00705 ; undefined
    a2b4:	00000001 	udf	#1
    a2b8:	c6e00705 	.inst	0xc6e00705 ; undefined
    a2bc:	00000001 	udf	#1
    a2c0:	c7000705 	.inst	0xc7000705 ; undefined
    a2c4:	00000001 	udf	#1
    a2c8:	c7200705 	.inst	0xc7200705 ; undefined
    a2cc:	00000001 	udf	#1
    a2d0:	c7400705 	.inst	0xc7400705 ; undefined
    a2d4:	00000001 	udf	#1
    a2d8:	c7600705 	.inst	0xc7600705 ; undefined
    a2dc:	00000001 	udf	#1
    a2e0:	c7800705 	.inst	0xc7800705 ; undefined
    a2e4:	00000001 	udf	#1
    a2e8:	c7a00705 	.inst	0xc7a00705 ; undefined
    a2ec:	00000001 	udf	#1
    a2f0:	c7c00705 	.inst	0xc7c00705 ; undefined
    a2f4:	00000001 	udf	#1
    a2f8:	c7e00705 	.inst	0xc7e00705 ; undefined
    a2fc:	00000001 	udf	#1
    a300:	c8000705 	stxr	w0, x5, [x24]
    a304:	00000001 	udf	#1
    a308:	c8200705 	stxp	w0, x5, x1, [x24]
    a30c:	00000001 	udf	#1
    a310:	c8400705 	ldxr	x5, [x24]
    a314:	00000001 	udf	#1
    a318:	c8600705 	ldxp	x5, x1, [x24]
    a31c:	00000001 	udf	#1
    a320:	c8800705 	stllr	x5, [x24]
    a324:	00000001 	udf	#1
    a328:	c8a00705 	.inst	0xc8a00705 ; undefined
    a32c:	00000001 	udf	#1
    a330:	c8c00705 	ldlar	x5, [x24]
    a334:	00000001 	udf	#1
    a338:	c8e00705 	.inst	0xc8e00705 ; undefined
    a33c:	00000001 	udf	#1
    a340:	c9000705 	.inst	0xc9000705 ; undefined
    a344:	00000001 	udf	#1
    a348:	c9200705 	.inst	0xc9200705 ; undefined
    a34c:	00000001 	udf	#1
    a350:	c9400705 	.inst	0xc9400705 ; undefined
    a354:	00000001 	udf	#1
    a358:	c9600705 	.inst	0xc9600705 ; undefined
    a35c:	00000001 	udf	#1
    a360:	c9800705 	.inst	0xc9800705 ; undefined
    a364:	00000001 	udf	#1
    a368:	c9a00705 	.inst	0xc9a00705 ; undefined
    a36c:	00000001 	udf	#1
    a370:	c9c00705 	.inst	0xc9c00705 ; undefined
    a374:	00000001 	udf	#1
    a378:	c9e00705 	.inst	0xc9e00705 ; undefined
    a37c:	00000001 	udf	#1
    a380:	ca000705 	eor	x5, x24, x0, lsl #1
    a384:	00000001 	udf	#1
    a388:	ca200705 	eon	x5, x24, x0, lsl #1
    a38c:	00000001 	udf	#1
    a390:	ca400705 	eor	x5, x24, x0, lsr #1
    a394:	00000001 	udf	#1
    a398:	ca600705 	eon	x5, x24, x0, lsr #1
    a39c:	00000001 	udf	#1
    a3a0:	ca800705 	eor	x5, x24, x0, asr #1
    a3a4:	00000001 	udf	#1
    a3a8:	caa00705 	eon	x5, x24, x0, asr #1
    a3ac:	00000001 	udf	#1
    a3b0:	cac00705 	eor	x5, x24, x0, ror #1
    a3b4:	00000001 	udf	#1
    a3b8:	cae00705 	eon	x5, x24, x0, ror #1
    a3bc:	00000001 	udf	#1
    a3c0:	cb000705 	sub	x5, x24, x0, lsl #1
    a3c4:	00000001 	udf	#1
    a3c8:	cb200705 	sub	x5, x24, w0, uxtb #1
    a3cc:	00000001 	udf	#1
    a3d0:	cb400705 	sub	x5, x24, x0, lsr #1
    a3d4:	00000001 	udf	#1
    a3d8:	cb600705 	.inst	0xcb600705 ; undefined
    a3dc:	00000001 	udf	#1
    a3e0:	cb800705 	sub	x5, x24, x0, asr #1
    a3e4:	00000001 	udf	#1
    a3e8:	cba00705 	.inst	0xcba00705 ; undefined
    a3ec:	00000001 	udf	#1
    a3f0:	cbc00705 	.inst	0xcbc00705 ; undefined
    a3f4:	00000001 	udf	#1
    a3f8:	cbe00705 	.inst	0xcbe00705 ; undefined
    a3fc:	00000001 	udf	#1
    a400:	cc000705 	.inst	0xcc000705 ; undefined
    a404:	00000001 	udf	#1
    a408:	cc200705 	.inst	0xcc200705 ; undefined
    a40c:	00000001 	udf	#1
    a410:	cc400705 	.inst	0xcc400705 ; undefined
    a414:	00000001 	udf	#1
    a418:	cc600705 	.inst	0xcc600705 ; undefined
    a41c:	00000001 	udf	#1
    a420:	cc800705 	.inst	0xcc800705 ; undefined
    a424:	00000001 	udf	#1
    a428:	cca00705 	.inst	0xcca00705 ; undefined
    a42c:	00000001 	udf	#1
    a430:	ccc00705 	.inst	0xccc00705 ; undefined
    a434:	00000001 	udf	#1
    a438:	cce00705 	.inst	0xcce00705 ; undefined
    a43c:	00000001 	udf	#1
    a440:	cd000705 	.inst	0xcd000705 ; undefined
    a444:	00000001 	udf	#1
    a448:	cd200705 	.inst	0xcd200705 ; undefined
    a44c:	00000001 	udf	#1
    a450:	cd400705 	.inst	0xcd400705 ; undefined
    a454:	00000001 	udf	#1
    a458:	cd600705 	.inst	0xcd600705 ; undefined
    a45c:	00000001 	udf	#1
    a460:	cd800705 	.inst	0xcd800705 ; undefined
    a464:	00000001 	udf	#1
    a468:	cda00705 	.inst	0xcda00705 ; undefined
    a46c:	00000001 	udf	#1
    a470:	cdc00705 	.inst	0xcdc00705 ; undefined
    a474:	00000001 	udf	#1
    a478:	cde00705 	.inst	0xcde00705 ; undefined
    a47c:	00000001 	udf	#1
    a480:	ce000705 	eor3	v5.16b, v24.16b, v0.16b, v1.16b
    a484:	00000001 	udf	#1
    a488:	ce200705 	bcax	v5.16b, v24.16b, v0.16b, v1.16b
    a48c:	00000001 	udf	#1
    a490:	ce400705 	sm3ss1	v5.4s, v24.4s, v0.4s, v1.4s
    a494:	00000001 	udf	#1
    a498:	ce600705 	.inst	0xce600705 ; undefined
    a49c:	00000001 	udf	#1
    a4a0:	ce800705 	xar	v5.2d, v24.2d, v0.2d, #1
    a4a4:	00000001 	udf	#1
    a4a8:	cea00705 	.inst	0xcea00705 ; undefined
    a4ac:	00000001 	udf	#1
    a4b0:	cec00705 	.inst	0xcec00705 ; undefined
    a4b4:	00000001 	udf	#1
    a4b8:	cee00705 	.inst	0xcee00705 ; undefined
    a4bc:	00000001 	udf	#1
    a4c0:	cf000705 	.inst	0xcf000705 ; undefined
    a4c4:	00000001 	udf	#1
    a4c8:	cf200705 	.inst	0xcf200705 ; undefined
    a4cc:	00000001 	udf	#1
    a4d0:	cf400705 	.inst	0xcf400705 ; undefined
    a4d4:	00000001 	udf	#1
    a4d8:	cf600705 	.inst	0xcf600705 ; undefined
    a4dc:	00000001 	udf	#1
    a4e0:	cf800705 	.inst	0xcf800705 ; undefined
    a4e4:	00000001 	udf	#1
    a4e8:	cfa00705 	.inst	0xcfa00705 ; undefined
    a4ec:	00000001 	udf	#1
    a4f0:	cfc00705 	.inst	0xcfc00705 ; undefined
    a4f4:	00000001 	udf	#1
    a4f8:	cfe00705 	.inst	0xcfe00705 ; undefined
    a4fc:	00000001 	udf	#1
    a500:	d0000705 	adrp	x5, ec000 <__stack_end+0xd5270>
    a504:	00000001 	udf	#1
    a508:	d0200705 	adrp	x5, 400ec000 <__buffer_end+0x3fdec000>
    a50c:	00000001 	udf	#1
    a510:	d0400705 	adrp	x5, 800ec000 <__buffer_end+0x7fdec000>
    a514:	00000001 	udf	#1
    a518:	d0600705 	adrp	x5, c00ec000 <__buffer_end+0xbfdec000>
    a51c:	00000001 	udf	#1
    a520:	d0800705 	adrp	x5, ffffffff000ec000 <DEVICE+0xff9fffff000ebbf7>
    a524:	00000001 	udf	#1
    a528:	d0a00705 	adrp	x5, ffffffff400ec000 <DEVICE+0xff9fffff400ebbf7>
    a52c:	00000001 	udf	#1
    a530:	d0c00705 	adrp	x5, ffffffff800ec000 <DEVICE+0xff9fffff800ebbf7>
    a534:	00000001 	udf	#1
    a538:	d0e00705 	adrp	x5, ffffffffc00ec000 <DEVICE+0xff9fffffc00ebbf7>
    a53c:	00000001 	udf	#1
    a540:	d1000705 	sub	x5, x24, #0x1
    a544:	00000001 	udf	#1
    a548:	d1200705 	sub	x5, x24, #0x801
    a54c:	00000001 	udf	#1
    a550:	d1400705 	sub	x5, x24, #0x1, lsl #12
    a554:	00000001 	udf	#1
    a558:	d1600705 	sub	x5, x24, #0x801, lsl #12
    a55c:	00000001 	udf	#1
    a560:	d1800705 	subg	x5, x24, #0x0, #0x1
    a564:	00000001 	udf	#1
    a568:	d1a00705 	subg	x5, x24, #0x200, #0x1
    a56c:	00000001 	udf	#1
    a570:	d1c00705 	.inst	0xd1c00705 ; undefined
    a574:	00000001 	udf	#1
    a578:	d1e00705 	.inst	0xd1e00705 ; undefined
    a57c:	00000001 	udf	#1
    a580:	d2000705 	eor	x5, x24, #0x300000003
    a584:	00000001 	udf	#1
    a588:	d2200705 	eor	x5, x24, #0x300000003
    a58c:	00000001 	udf	#1
    a590:	d2400705 	eor	x5, x24, #0x3
    a594:	00000001 	udf	#1
    a598:	d2600705 	eor	x5, x24, #0x300000000
    a59c:	00000001 	udf	#1
    a5a0:	d2800705 	mov	x5, #0x38                  	// #56
    a5a4:	00000001 	udf	#1
    a5a8:	d2a00705 	mov	x5, #0x380000              	// #3670016
    a5ac:	00000001 	udf	#1
    a5b0:	d2c00705 	mov	x5, #0x3800000000          	// #240518168576
    a5b4:	00000001 	udf	#1
    a5b8:	d2e00705 	mov	x5, #0x38000000000000      	// #15762598695796736
    a5bc:	00000001 	udf	#1
    a5c0:	d3000705 	.inst	0xd3000705 ; undefined
    a5c4:	00000001 	udf	#1
    a5c8:	d3200705 	.inst	0xd3200705 ; undefined
    a5cc:	00000001 	udf	#1
    a5d0:	d3400705 	ubfx	x5, x24, #0, #2
    a5d4:	00000001 	udf	#1
    a5d8:	d3600705 	ubfiz	x5, x24, #32, #2
    a5dc:	00000001 	udf	#1
    a5e0:	d3800705 	.inst	0xd3800705 ; undefined
    a5e4:	00000001 	udf	#1
    a5e8:	d3a00705 	.inst	0xd3a00705 ; undefined
    a5ec:	00000001 	udf	#1
    a5f0:	d3c00705 	.inst	0xd3c00705 ; undefined
    a5f4:	00000001 	udf	#1
    a5f8:	d3e00705 	.inst	0xd3e00705 ; undefined
    a5fc:	00000001 	udf	#1
    a600:	d4000705 	.inst	0xd4000705 ; undefined
    a604:	00000001 	udf	#1
    a608:	d4200705 	.inst	0xd4200705 ; undefined
    a60c:	00000001 	udf	#1
    a610:	d4400705 	.inst	0xd4400705 ; undefined
    a614:	00000001 	udf	#1
    a618:	d4600705 	.inst	0xd4600705 ; undefined
    a61c:	00000001 	udf	#1
    a620:	d4800705 	.inst	0xd4800705 ; undefined
    a624:	00000001 	udf	#1
    a628:	d4a00705 	.inst	0xd4a00705 ; undefined
    a62c:	00000001 	udf	#1
    a630:	d4c00705 	.inst	0xd4c00705 ; undefined
    a634:	00000001 	udf	#1
    a638:	d4e00705 	.inst	0xd4e00705 ; undefined
    a63c:	00000001 	udf	#1
    a640:	d5000705 	msr	s0_0_c0_c7_0, x5
    a644:	00000001 	udf	#1
    a648:	d5200705 	mrs	x5, s0_0_c0_c7_0
    a64c:	00000001 	udf	#1
    a650:	d5400705 	.inst	0xd5400705 ; undefined
    a654:	00000001 	udf	#1
    a658:	d5600705 	.inst	0xd5600705 ; undefined
    a65c:	00000001 	udf	#1
    a660:	d5800705 	.inst	0xd5800705 ; undefined
    a664:	00000001 	udf	#1
    a668:	d5a00705 	.inst	0xd5a00705 ; undefined
    a66c:	00000001 	udf	#1
    a670:	d5c00705 	.inst	0xd5c00705 ; undefined
    a674:	00000001 	udf	#1
    a678:	d5e00705 	.inst	0xd5e00705 ; undefined
    a67c:	00000001 	udf	#1
    a680:	d6000705 	.inst	0xd6000705 ; undefined
    a684:	00000001 	udf	#1
    a688:	d6200705 	.inst	0xd6200705 ; undefined
    a68c:	00000001 	udf	#1
    a690:	d6400705 	.inst	0xd6400705 ; undefined
    a694:	00000001 	udf	#1
    a698:	d6600705 	.inst	0xd6600705 ; undefined
    a69c:	00000001 	udf	#1
    a6a0:	d6800705 	.inst	0xd6800705 ; undefined
    a6a4:	00000001 	udf	#1
    a6a8:	d6a00705 	.inst	0xd6a00705 ; undefined
    a6ac:	00000001 	udf	#1
    a6b0:	d6c00705 	.inst	0xd6c00705 ; undefined
    a6b4:	00000001 	udf	#1
    a6b8:	d6e00705 	.inst	0xd6e00705 ; undefined
    a6bc:	00000001 	udf	#1
    a6c0:	d7000705 	.inst	0xd7000705 ; undefined
    a6c4:	00000001 	udf	#1
    a6c8:	d7200705 	.inst	0xd7200705 ; undefined
    a6cc:	00000001 	udf	#1
    a6d0:	d7400705 	.inst	0xd7400705 ; undefined
    a6d4:	00000001 	udf	#1
    a6d8:	d7600705 	.inst	0xd7600705 ; undefined
    a6dc:	00000001 	udf	#1
    a6e0:	d7800705 	.inst	0xd7800705 ; undefined
    a6e4:	00000001 	udf	#1
    a6e8:	d7a00705 	.inst	0xd7a00705 ; undefined
    a6ec:	00000001 	udf	#1
    a6f0:	d7c00705 	.inst	0xd7c00705 ; undefined
    a6f4:	00000001 	udf	#1
    a6f8:	d7e00705 	.inst	0xd7e00705 ; undefined
    a6fc:	00000001 	udf	#1
    a700:	d8000705 	prfm	pldl3strm, a7e0 <MMUTableL2.2+0x36e0>
    a704:	00000001 	udf	#1
    a708:	d8200705 	prfm	pldl3strm, 4a7e8 <__stack_end+0x33a58>
    a70c:	00000001 	udf	#1
    a710:	d8400705 	prfm	pldl3strm, 8a7f0 <__stack_end+0x73a60>
    a714:	00000001 	udf	#1
    a718:	d8600705 	prfm	pldl3strm, ca7f8 <__stack_end+0xb3a68>
    a71c:	00000001 	udf	#1
    a720:	d8800705 	prfm	pldl3strm, fffffffffff0a800 <DEVICE+0xff9ffffffff0a3f7>
    a724:	00000001 	udf	#1
    a728:	d8a00705 	prfm	pldl3strm, fffffffffff4a808 <DEVICE+0xff9ffffffff4a3ff>
    a72c:	00000001 	udf	#1
    a730:	d8c00705 	prfm	pldl3strm, fffffffffff8a810 <DEVICE+0xff9ffffffff8a407>
    a734:	00000001 	udf	#1
    a738:	d8e00705 	prfm	pldl3strm, fffffffffffca818 <DEVICE+0xff9ffffffffca40f>
    a73c:	00000001 	udf	#1
    a740:	d9000705 	.inst	0xd9000705 ; undefined
    a744:	00000001 	udf	#1
    a748:	d9200705 	stg	x5, [x24], #0
    a74c:	00000001 	udf	#1
    a750:	d9400705 	.inst	0xd9400705 ; undefined
    a754:	00000001 	udf	#1
    a758:	d9600705 	stzg	x5, [x24], #0
    a75c:	00000001 	udf	#1
    a760:	d9800705 	.inst	0xd9800705 ; undefined
    a764:	00000001 	udf	#1
    a768:	d9a00705 	st2g	x5, [x24], #0
    a76c:	00000001 	udf	#1
    a770:	d9c00705 	.inst	0xd9c00705 ; undefined
    a774:	00000001 	udf	#1
    a778:	d9e00705 	stz2g	x5, [x24], #0
    a77c:	00000001 	udf	#1
    a780:	da000705 	.inst	0xda000705 ; undefined
    a784:	00000001 	udf	#1
    a788:	da200705 	.inst	0xda200705 ; undefined
    a78c:	00000001 	udf	#1
    a790:	da400705 	.inst	0xda400705 ; undefined
    a794:	00000001 	udf	#1
    a798:	da600705 	.inst	0xda600705 ; undefined
    a79c:	00000001 	udf	#1
    a7a0:	da800705 	csneg	x5, x24, x0, eq	// eq = none
    a7a4:	00000001 	udf	#1
    a7a8:	daa00705 	.inst	0xdaa00705 ; undefined
    a7ac:	00000001 	udf	#1
    a7b0:	dac00705 	rev16	x5, x24
    a7b4:	00000001 	udf	#1
    a7b8:	dae00705 	.inst	0xdae00705 ; undefined
    a7bc:	00000001 	udf	#1
    a7c0:	db000705 	.inst	0xdb000705 ; undefined
    a7c4:	00000001 	udf	#1
    a7c8:	db200705 	.inst	0xdb200705 ; undefined
    a7cc:	00000001 	udf	#1
    a7d0:	db400705 	.inst	0xdb400705 ; undefined
    a7d4:	00000001 	udf	#1
    a7d8:	db600705 	.inst	0xdb600705 ; undefined
    a7dc:	00000001 	udf	#1
    a7e0:	db800705 	.inst	0xdb800705 ; undefined
    a7e4:	00000001 	udf	#1
    a7e8:	dba00705 	.inst	0xdba00705 ; undefined
    a7ec:	00000001 	udf	#1
    a7f0:	dbc00705 	.inst	0xdbc00705 ; undefined
    a7f4:	00000001 	udf	#1
    a7f8:	dbe00705 	.inst	0xdbe00705 ; undefined
    a7fc:	00000001 	udf	#1
    a800:	dc000705 	.inst	0xdc000705 ; undefined
    a804:	00000001 	udf	#1
    a808:	dc200705 	.inst	0xdc200705 ; undefined
    a80c:	00000001 	udf	#1
    a810:	dc400705 	.inst	0xdc400705 ; undefined
    a814:	00000001 	udf	#1
    a818:	dc600705 	.inst	0xdc600705 ; undefined
    a81c:	00000001 	udf	#1
    a820:	dc800705 	.inst	0xdc800705 ; undefined
    a824:	00000001 	udf	#1
    a828:	dca00705 	.inst	0xdca00705 ; undefined
    a82c:	00000001 	udf	#1
    a830:	dcc00705 	.inst	0xdcc00705 ; undefined
    a834:	00000001 	udf	#1
    a838:	dce00705 	.inst	0xdce00705 ; undefined
    a83c:	00000001 	udf	#1
    a840:	dd000705 	.inst	0xdd000705 ; undefined
    a844:	00000001 	udf	#1
    a848:	dd200705 	.inst	0xdd200705 ; undefined
    a84c:	00000001 	udf	#1
    a850:	dd400705 	.inst	0xdd400705 ; undefined
    a854:	00000001 	udf	#1
    a858:	dd600705 	.inst	0xdd600705 ; undefined
    a85c:	00000001 	udf	#1
    a860:	dd800705 	.inst	0xdd800705 ; undefined
    a864:	00000001 	udf	#1
    a868:	dda00705 	.inst	0xdda00705 ; undefined
    a86c:	00000001 	udf	#1
    a870:	ddc00705 	.inst	0xddc00705 ; undefined
    a874:	00000001 	udf	#1
    a878:	dde00705 	.inst	0xdde00705 ; undefined
    a87c:	00000001 	udf	#1
    a880:	de000705 	.inst	0xde000705 ; undefined
    a884:	00000001 	udf	#1
    a888:	de200705 	.inst	0xde200705 ; undefined
    a88c:	00000001 	udf	#1
    a890:	de400705 	.inst	0xde400705 ; undefined
    a894:	00000001 	udf	#1
    a898:	de600705 	.inst	0xde600705 ; undefined
    a89c:	00000001 	udf	#1
    a8a0:	de800705 	.inst	0xde800705 ; undefined
    a8a4:	00000001 	udf	#1
    a8a8:	dea00705 	.inst	0xdea00705 ; undefined
    a8ac:	00000001 	udf	#1
    a8b0:	dec00705 	.inst	0xdec00705 ; undefined
    a8b4:	00000001 	udf	#1
    a8b8:	dee00705 	.inst	0xdee00705 ; undefined
    a8bc:	00000001 	udf	#1
    a8c0:	df000705 	.inst	0xdf000705 ; undefined
    a8c4:	00000001 	udf	#1
    a8c8:	df200705 	.inst	0xdf200705 ; undefined
    a8cc:	00000001 	udf	#1
    a8d0:	df400705 	.inst	0xdf400705 ; undefined
    a8d4:	00000001 	udf	#1
    a8d8:	df600705 	.inst	0xdf600705 ; undefined
    a8dc:	00000001 	udf	#1
    a8e0:	df800705 	.inst	0xdf800705 ; undefined
    a8e4:	00000001 	udf	#1
    a8e8:	dfa00705 	.inst	0xdfa00705 ; undefined
    a8ec:	00000001 	udf	#1
    a8f0:	dfc00705 	.inst	0xdfc00705 ; undefined
    a8f4:	00000001 	udf	#1
    a8f8:	dfe00705 	.inst	0xdfe00705 ; undefined
    a8fc:	00000001 	udf	#1
    a900:	e0000705 	ld1b	{za0h.b[w12, 5]}, p1/z, [x24, x0]
    a904:	00000001 	udf	#1
    a908:	e0200705 	st1b	{za0h.b[w12, 5]}, p1, [x24, x0]
    a90c:	00000001 	udf	#1
    a910:	e0400705 	ld1h	{za0h.h[w12, 5]}, p1/z, [x24, x0, lsl #1]
    a914:	00000001 	udf	#1
    a918:	e0600705 	st1h	{za0h.h[w12, 5]}, p1, [x24, x0, lsl #1]
    a91c:	00000001 	udf	#1
    a920:	e0800705 	ld1w	{za1h.s[w12, 1]}, p1/z, [x24, x0, lsl #2]
    a924:	00000001 	udf	#1
    a928:	e0a00705 	st1w	{za1h.s[w12, 1]}, p1, [x24, x0, lsl #2]
    a92c:	00000001 	udf	#1
    a930:	e0c00705 	ld1d	{za2h.d[w12, 1]}, p1/z, [x24, x0, lsl #3]
    a934:	00000001 	udf	#1
    a938:	e0e00705 	st1d	{za2h.d[w12, 1]}, p1, [x24, x0, lsl #3]
    a93c:	00000001 	udf	#1
    a940:	e1000705 	.inst	0xe1000705 ; undefined
    a944:	00000001 	udf	#1
    a948:	e1200705 	.inst	0xe1200705 ; undefined
    a94c:	00000001 	udf	#1
    a950:	e1400705 	.inst	0xe1400705 ; undefined
    a954:	00000001 	udf	#1
    a958:	e1600705 	.inst	0xe1600705 ; undefined
    a95c:	00000001 	udf	#1
    a960:	e1800705 	.inst	0xe1800705 ; undefined
    a964:	00000001 	udf	#1
    a968:	e1a00705 	.inst	0xe1a00705 ; undefined
    a96c:	00000001 	udf	#1
    a970:	e1c00705 	ld1q	{za5h.q[w12, 0]}, p1/z, [x24, x0, lsl #4]
    a974:	00000001 	udf	#1
    a978:	e1e00705 	st1q	{za5h.q[w12, 0]}, p1, [x24, x0, lsl #4]
    a97c:	00000001 	udf	#1
    a980:	e2000705 	.inst	0xe2000705 ; undefined
    a984:	00000001 	udf	#1
    a988:	e2200705 	.inst	0xe2200705 ; undefined
    a98c:	00000001 	udf	#1
    a990:	e2400705 	.inst	0xe2400705 ; undefined
    a994:	00000001 	udf	#1
    a998:	e2600705 	.inst	0xe2600705 ; undefined
    a99c:	00000001 	udf	#1
    a9a0:	e2800705 	.inst	0xe2800705 ; undefined
    a9a4:	00000001 	udf	#1
    a9a8:	e2a00705 	.inst	0xe2a00705 ; undefined
    a9ac:	00000001 	udf	#1
    a9b0:	e2c00705 	.inst	0xe2c00705 ; undefined
    a9b4:	00000001 	udf	#1
    a9b8:	e2e00705 	.inst	0xe2e00705 ; undefined
    a9bc:	00000001 	udf	#1
    a9c0:	e3000705 	.inst	0xe3000705 ; undefined
    a9c4:	00000001 	udf	#1
    a9c8:	e3200705 	.inst	0xe3200705 ; undefined
    a9cc:	00000001 	udf	#1
    a9d0:	e3400705 	.inst	0xe3400705 ; undefined
    a9d4:	00000001 	udf	#1
    a9d8:	e3600705 	.inst	0xe3600705 ; undefined
    a9dc:	00000001 	udf	#1
    a9e0:	e3800705 	.inst	0xe3800705 ; undefined
    a9e4:	00000001 	udf	#1
    a9e8:	e3a00705 	.inst	0xe3a00705 ; undefined
    a9ec:	00000001 	udf	#1
    a9f0:	e3c00705 	.inst	0xe3c00705 ; undefined
    a9f4:	00000001 	udf	#1
    a9f8:	e3e00705 	.inst	0xe3e00705 ; undefined
    a9fc:	00000001 	udf	#1
    aa00:	e4000705 	.inst	0xe4000705 ; undefined
    aa04:	00000001 	udf	#1
    aa08:	e4200705 	.inst	0xe4200705 ; undefined
    aa0c:	00000001 	udf	#1
    aa10:	e4400705 	.inst	0xe4400705 ; undefined
    aa14:	00000001 	udf	#1
    aa18:	e4600705 	.inst	0xe4600705 ; undefined
    aa1c:	00000001 	udf	#1
    aa20:	e4800705 	.inst	0xe4800705 ; undefined
    aa24:	00000001 	udf	#1
    aa28:	e4a00705 	.inst	0xe4a00705 ; undefined
    aa2c:	00000001 	udf	#1
    aa30:	e4c00705 	.inst	0xe4c00705 ; undefined
    aa34:	00000001 	udf	#1
    aa38:	e4e00705 	.inst	0xe4e00705 ; undefined
    aa3c:	00000001 	udf	#1
    aa40:	e5000705 	.inst	0xe5000705 ; undefined
    aa44:	00000001 	udf	#1
    aa48:	e5200705 	.inst	0xe5200705 ; undefined
    aa4c:	00000001 	udf	#1
    aa50:	e5400705 	.inst	0xe5400705 ; undefined
    aa54:	00000001 	udf	#1
    aa58:	e5600705 	.inst	0xe5600705 ; undefined
    aa5c:	00000001 	udf	#1
    aa60:	e5800705 	str	p5, [x24, #1, mul vl]
    aa64:	00000001 	udf	#1
    aa68:	e5a00705 	str	p5, [x24, #-255, mul vl]
    aa6c:	00000001 	udf	#1
    aa70:	e5c00705 	.inst	0xe5c00705 ; undefined
    aa74:	00000001 	udf	#1
    aa78:	e5e00705 	.inst	0xe5e00705 ; undefined
    aa7c:	00000001 	udf	#1
    aa80:	e6000705 	.inst	0xe6000705 ; undefined
    aa84:	00000001 	udf	#1
    aa88:	e6200705 	.inst	0xe6200705 ; undefined
    aa8c:	00000001 	udf	#1
    aa90:	e6400705 	.inst	0xe6400705 ; undefined
    aa94:	00000001 	udf	#1
    aa98:	e6600705 	.inst	0xe6600705 ; undefined
    aa9c:	00000001 	udf	#1
    aaa0:	e6800705 	.inst	0xe6800705 ; undefined
    aaa4:	00000001 	udf	#1
    aaa8:	e6a00705 	.inst	0xe6a00705 ; undefined
    aaac:	00000001 	udf	#1
    aab0:	e6c00705 	.inst	0xe6c00705 ; undefined
    aab4:	00000001 	udf	#1
    aab8:	e6e00705 	.inst	0xe6e00705 ; undefined
    aabc:	00000001 	udf	#1
    aac0:	e7000705 	.inst	0xe7000705 ; undefined
    aac4:	00000001 	udf	#1
    aac8:	e7200705 	.inst	0xe7200705 ; undefined
    aacc:	00000001 	udf	#1
    aad0:	e7400705 	.inst	0xe7400705 ; undefined
    aad4:	00000001 	udf	#1
    aad8:	e7600705 	.inst	0xe7600705 ; undefined
    aadc:	00000001 	udf	#1
    aae0:	e7800705 	.inst	0xe7800705 ; undefined
    aae4:	00000001 	udf	#1
    aae8:	e7a00705 	.inst	0xe7a00705 ; undefined
    aaec:	00000001 	udf	#1
    aaf0:	e7c00705 	.inst	0xe7c00705 ; undefined
    aaf4:	00000001 	udf	#1
    aaf8:	e7e00705 	.inst	0xe7e00705 ; undefined
    aafc:	00000001 	udf	#1
    ab00:	e8000705 	.inst	0xe8000705 ; undefined
    ab04:	00000001 	udf	#1
    ab08:	e8200705 	.inst	0xe8200705 ; undefined
    ab0c:	00000001 	udf	#1
    ab10:	e8400705 	.inst	0xe8400705 ; undefined
    ab14:	00000001 	udf	#1
    ab18:	e8600705 	.inst	0xe8600705 ; undefined
    ab1c:	00000001 	udf	#1
    ab20:	e8800705 	.inst	0xe8800705 ; undefined
    ab24:	00000001 	udf	#1
    ab28:	e8a00705 	.inst	0xe8a00705 ; undefined
    ab2c:	00000001 	udf	#1
    ab30:	e8c00705 	.inst	0xe8c00705 ; undefined
    ab34:	00000001 	udf	#1
    ab38:	e8e00705 	.inst	0xe8e00705 ; undefined
    ab3c:	00000001 	udf	#1
    ab40:	e9000705 	.inst	0xe9000705 ; undefined
    ab44:	00000001 	udf	#1
    ab48:	e9200705 	.inst	0xe9200705 ; undefined
    ab4c:	00000001 	udf	#1
    ab50:	e9400705 	.inst	0xe9400705 ; undefined
    ab54:	00000001 	udf	#1
    ab58:	e9600705 	.inst	0xe9600705 ; undefined
    ab5c:	00000001 	udf	#1
    ab60:	e9800705 	.inst	0xe9800705 ; undefined
    ab64:	00000001 	udf	#1
    ab68:	e9a00705 	.inst	0xe9a00705 ; undefined
    ab6c:	00000001 	udf	#1
    ab70:	e9c00705 	.inst	0xe9c00705 ; undefined
    ab74:	00000001 	udf	#1
    ab78:	e9e00705 	.inst	0xe9e00705 ; undefined
    ab7c:	00000001 	udf	#1
    ab80:	ea000705 	ands	x5, x24, x0, lsl #1
    ab84:	00000001 	udf	#1
    ab88:	ea200705 	bics	x5, x24, x0, lsl #1
    ab8c:	00000001 	udf	#1
    ab90:	ea400705 	ands	x5, x24, x0, lsr #1
    ab94:	00000001 	udf	#1
    ab98:	ea600705 	bics	x5, x24, x0, lsr #1
    ab9c:	00000001 	udf	#1
    aba0:	ea800705 	ands	x5, x24, x0, asr #1
    aba4:	00000001 	udf	#1
    aba8:	eaa00705 	bics	x5, x24, x0, asr #1
    abac:	00000001 	udf	#1
    abb0:	eac00705 	ands	x5, x24, x0, ror #1
    abb4:	00000001 	udf	#1
    abb8:	eae00705 	bics	x5, x24, x0, ror #1
    abbc:	00000001 	udf	#1
    abc0:	eb000705 	subs	x5, x24, x0, lsl #1
    abc4:	00000001 	udf	#1
    abc8:	eb200705 	subs	x5, x24, w0, uxtb #1
    abcc:	00000001 	udf	#1
    abd0:	eb400705 	subs	x5, x24, x0, lsr #1
    abd4:	00000001 	udf	#1
    abd8:	eb600705 	.inst	0xeb600705 ; undefined
    abdc:	00000001 	udf	#1
    abe0:	eb800705 	subs	x5, x24, x0, asr #1
    abe4:	00000001 	udf	#1
    abe8:	eba00705 	.inst	0xeba00705 ; undefined
    abec:	00000001 	udf	#1
    abf0:	ebc00705 	.inst	0xebc00705 ; undefined
    abf4:	00000001 	udf	#1
    abf8:	ebe00705 	.inst	0xebe00705 ; undefined
    abfc:	00000001 	udf	#1
    ac00:	ec000705 	.inst	0xec000705 ; undefined
    ac04:	00000001 	udf	#1
    ac08:	ec200705 	.inst	0xec200705 ; undefined
    ac0c:	00000001 	udf	#1
    ac10:	ec400705 	.inst	0xec400705 ; undefined
    ac14:	00000001 	udf	#1
    ac18:	ec600705 	.inst	0xec600705 ; undefined
    ac1c:	00000001 	udf	#1
    ac20:	ec800705 	.inst	0xec800705 ; undefined
    ac24:	00000001 	udf	#1
    ac28:	eca00705 	.inst	0xeca00705 ; undefined
    ac2c:	00000001 	udf	#1
    ac30:	ecc00705 	.inst	0xecc00705 ; undefined
    ac34:	00000001 	udf	#1
    ac38:	ece00705 	.inst	0xece00705 ; undefined
    ac3c:	00000001 	udf	#1
    ac40:	ed000705 	.inst	0xed000705 ; undefined
    ac44:	00000001 	udf	#1
    ac48:	ed200705 	.inst	0xed200705 ; undefined
    ac4c:	00000001 	udf	#1
    ac50:	ed400705 	.inst	0xed400705 ; undefined
    ac54:	00000001 	udf	#1
    ac58:	ed600705 	.inst	0xed600705 ; undefined
    ac5c:	00000001 	udf	#1
    ac60:	ed800705 	.inst	0xed800705 ; undefined
    ac64:	00000001 	udf	#1
    ac68:	eda00705 	.inst	0xeda00705 ; undefined
    ac6c:	00000001 	udf	#1
    ac70:	edc00705 	.inst	0xedc00705 ; undefined
    ac74:	00000001 	udf	#1
    ac78:	ede00705 	.inst	0xede00705 ; undefined
    ac7c:	00000001 	udf	#1
    ac80:	ee000705 	.inst	0xee000705 ; undefined
    ac84:	00000001 	udf	#1
    ac88:	ee200705 	.inst	0xee200705 ; undefined
    ac8c:	00000001 	udf	#1
    ac90:	ee400705 	.inst	0xee400705 ; undefined
    ac94:	00000001 	udf	#1
    ac98:	ee600705 	.inst	0xee600705 ; undefined
    ac9c:	00000001 	udf	#1
    aca0:	ee800705 	.inst	0xee800705 ; undefined
    aca4:	00000001 	udf	#1
    aca8:	eea00705 	.inst	0xeea00705 ; undefined
    acac:	00000001 	udf	#1
    acb0:	eec00705 	.inst	0xeec00705 ; undefined
    acb4:	00000001 	udf	#1
    acb8:	eee00705 	.inst	0xeee00705 ; undefined
    acbc:	00000001 	udf	#1
    acc0:	ef000705 	.inst	0xef000705 ; undefined
    acc4:	00000001 	udf	#1
    acc8:	ef200705 	.inst	0xef200705 ; undefined
    accc:	00000001 	udf	#1
    acd0:	ef400705 	.inst	0xef400705 ; undefined
    acd4:	00000001 	udf	#1
    acd8:	ef600705 	.inst	0xef600705 ; undefined
    acdc:	00000001 	udf	#1
    ace0:	ef800705 	.inst	0xef800705 ; undefined
    ace4:	00000001 	udf	#1
    ace8:	efa00705 	.inst	0xefa00705 ; undefined
    acec:	00000001 	udf	#1
    acf0:	efc00705 	.inst	0xefc00705 ; undefined
    acf4:	00000001 	udf	#1
    acf8:	efe00705 	.inst	0xefe00705 ; undefined
    acfc:	00000001 	udf	#1
    ad00:	f0000705 	adrp	x5, ed000 <__stack_end+0xd6270>
    ad04:	00000001 	udf	#1
    ad08:	f0200705 	adrp	x5, 400ed000 <__buffer_end+0x3fded000>
    ad0c:	00000001 	udf	#1
    ad10:	f0400705 	adrp	x5, 800ed000 <__buffer_end+0x7fded000>
    ad14:	00000001 	udf	#1
    ad18:	f0600705 	adrp	x5, c00ed000 <__buffer_end+0xbfded000>
    ad1c:	00000001 	udf	#1
    ad20:	f0800705 	adrp	x5, ffffffff000ed000 <DEVICE+0xff9fffff000ecbf7>
    ad24:	00000001 	udf	#1
    ad28:	f0a00705 	adrp	x5, ffffffff400ed000 <DEVICE+0xff9fffff400ecbf7>
    ad2c:	00000001 	udf	#1
    ad30:	f0c00705 	adrp	x5, ffffffff800ed000 <DEVICE+0xff9fffff800ecbf7>
    ad34:	00000001 	udf	#1
    ad38:	f0e00705 	adrp	x5, ffffffffc00ed000 <DEVICE+0xff9fffffc00ecbf7>
    ad3c:	00000001 	udf	#1
    ad40:	f1000705 	subs	x5, x24, #0x1
    ad44:	00000001 	udf	#1
    ad48:	f1200705 	subs	x5, x24, #0x801
    ad4c:	00000001 	udf	#1
    ad50:	f1400705 	subs	x5, x24, #0x1, lsl #12
    ad54:	00000001 	udf	#1
    ad58:	f1600705 	subs	x5, x24, #0x801, lsl #12
    ad5c:	00000001 	udf	#1
    ad60:	f1800705 	.inst	0xf1800705 ; undefined
    ad64:	00000001 	udf	#1
    ad68:	f1a00705 	.inst	0xf1a00705 ; undefined
    ad6c:	00000001 	udf	#1
    ad70:	f1c00705 	.inst	0xf1c00705 ; undefined
    ad74:	00000001 	udf	#1
    ad78:	f1e00705 	.inst	0xf1e00705 ; undefined
    ad7c:	00000001 	udf	#1
    ad80:	f2000705 	ands	x5, x24, #0x300000003
    ad84:	00000001 	udf	#1
    ad88:	f2200705 	ands	x5, x24, #0x300000003
    ad8c:	00000001 	udf	#1
    ad90:	f2400705 	ands	x5, x24, #0x3
    ad94:	00000001 	udf	#1
    ad98:	f2600705 	ands	x5, x24, #0x300000000
    ad9c:	00000001 	udf	#1
    ada0:	f2800705 	movk	x5, #0x38
    ada4:	00000001 	udf	#1
    ada8:	f2a00705 	movk	x5, #0x38, lsl #16
    adac:	00000001 	udf	#1
    adb0:	f2c00705 	movk	x5, #0x38, lsl #32
    adb4:	00000001 	udf	#1
    adb8:	f2e00705 	movk	x5, #0x38, lsl #48
    adbc:	00000001 	udf	#1
    adc0:	f3000705 	.inst	0xf3000705 ; undefined
    adc4:	00000001 	udf	#1
    adc8:	f3200705 	.inst	0xf3200705 ; undefined
    adcc:	00000001 	udf	#1
    add0:	f3400705 	.inst	0xf3400705 ; undefined
    add4:	00000001 	udf	#1
    add8:	f3600705 	.inst	0xf3600705 ; undefined
    addc:	00000001 	udf	#1
    ade0:	f3800705 	.inst	0xf3800705 ; undefined
    ade4:	00000001 	udf	#1
    ade8:	f3a00705 	.inst	0xf3a00705 ; undefined
    adec:	00000001 	udf	#1
    adf0:	f3c00705 	.inst	0xf3c00705 ; undefined
    adf4:	00000001 	udf	#1
    adf8:	f3e00705 	.inst	0xf3e00705 ; undefined
    adfc:	00000001 	udf	#1
    ae00:	f4000705 	.inst	0xf4000705 ; undefined
    ae04:	00000001 	udf	#1
    ae08:	f4200705 	.inst	0xf4200705 ; undefined
    ae0c:	00000001 	udf	#1
    ae10:	f4400705 	.inst	0xf4400705 ; undefined
    ae14:	00000001 	udf	#1
    ae18:	f4600705 	.inst	0xf4600705 ; undefined
    ae1c:	00000001 	udf	#1
    ae20:	f4800705 	.inst	0xf4800705 ; undefined
    ae24:	00000001 	udf	#1
    ae28:	f4a00705 	.inst	0xf4a00705 ; undefined
    ae2c:	00000001 	udf	#1
    ae30:	f4c00705 	.inst	0xf4c00705 ; undefined
    ae34:	00000001 	udf	#1
    ae38:	f4e00705 	.inst	0xf4e00705 ; undefined
    ae3c:	00000001 	udf	#1
    ae40:	f5000705 	.inst	0xf5000705 ; undefined
    ae44:	00000001 	udf	#1
    ae48:	f5200705 	.inst	0xf5200705 ; undefined
    ae4c:	00000001 	udf	#1
    ae50:	f5400705 	.inst	0xf5400705 ; undefined
    ae54:	00000001 	udf	#1
    ae58:	f5600705 	.inst	0xf5600705 ; undefined
    ae5c:	00000001 	udf	#1
    ae60:	f5800705 	.inst	0xf5800705 ; undefined
    ae64:	00000001 	udf	#1
    ae68:	f5a00705 	.inst	0xf5a00705 ; undefined
    ae6c:	00000001 	udf	#1
    ae70:	f5c00705 	.inst	0xf5c00705 ; undefined
    ae74:	00000001 	udf	#1
    ae78:	f5e00705 	.inst	0xf5e00705 ; undefined
    ae7c:	00000001 	udf	#1
    ae80:	f6000705 	.inst	0xf6000705 ; undefined
    ae84:	00000001 	udf	#1
    ae88:	f6200705 	.inst	0xf6200705 ; undefined
    ae8c:	00000001 	udf	#1
    ae90:	f6400705 	.inst	0xf6400705 ; undefined
    ae94:	00000001 	udf	#1
    ae98:	f6600705 	.inst	0xf6600705 ; undefined
    ae9c:	00000001 	udf	#1
    aea0:	f6800705 	.inst	0xf6800705 ; undefined
    aea4:	00000001 	udf	#1
    aea8:	f6a00705 	.inst	0xf6a00705 ; undefined
    aeac:	00000001 	udf	#1
    aeb0:	f6c00705 	.inst	0xf6c00705 ; undefined
    aeb4:	00000001 	udf	#1
    aeb8:	f6e00705 	.inst	0xf6e00705 ; undefined
    aebc:	00000001 	udf	#1
    aec0:	f7000705 	.inst	0xf7000705 ; undefined
    aec4:	00000001 	udf	#1
    aec8:	f7200705 	.inst	0xf7200705 ; undefined
    aecc:	00000001 	udf	#1
    aed0:	f7400705 	.inst	0xf7400705 ; undefined
    aed4:	00000001 	udf	#1
    aed8:	f7600705 	.inst	0xf7600705 ; undefined
    aedc:	00000001 	udf	#1
    aee0:	f7800705 	.inst	0xf7800705 ; undefined
    aee4:	00000001 	udf	#1
    aee8:	f7a00705 	.inst	0xf7a00705 ; undefined
    aeec:	00000001 	udf	#1
    aef0:	f7c00705 	.inst	0xf7c00705 ; undefined
    aef4:	00000001 	udf	#1
    aef8:	f7e00705 	.inst	0xf7e00705 ; undefined
    aefc:	00000001 	udf	#1
    af00:	f8000705 	str	x5, [x24], #0
    af04:	00000001 	udf	#1
    af08:	f8200705 	ldraa	x5, [x24]
    af0c:	00000001 	udf	#1
    af10:	f8400705 	ldr	x5, [x24], #0
    af14:	00000001 	udf	#1
    af18:	f8600705 	ldraa	x5, [x24, #-4096]
    af1c:	00000001 	udf	#1
    af20:	f8800705 	.inst	0xf8800705 ; undefined
    af24:	00000001 	udf	#1
    af28:	f8a00705 	ldrab	x5, [x24]
    af2c:	00000001 	udf	#1
    af30:	f8c00705 	.inst	0xf8c00705 ; undefined
    af34:	00000001 	udf	#1
    af38:	f8e00705 	ldrab	x5, [x24, #-4096]
    af3c:	00000001 	udf	#1
    af40:	f9000705 	str	x5, [x24, #8]
    af44:	00000001 	udf	#1
    af48:	f9200705 	str	x5, [x24, #16392]
    af4c:	00000001 	udf	#1
    af50:	f9400705 	ldr	x5, [x24, #8]
    af54:	00000001 	udf	#1
    af58:	f9600705 	ldr	x5, [x24, #16392]
    af5c:	00000001 	udf	#1
    af60:	f9800705 	prfm	pldl3strm, [x24, #8]
    af64:	00000001 	udf	#1
    af68:	f9a00705 	prfm	pldl3strm, [x24, #16392]
    af6c:	00000001 	udf	#1
    af70:	f9c00705 	.inst	0xf9c00705 ; undefined
    af74:	00000001 	udf	#1
    af78:	f9e00705 	.inst	0xf9e00705 ; undefined
    af7c:	00000001 	udf	#1
    af80:	fa000705 	.inst	0xfa000705 ; undefined
    af84:	00000001 	udf	#1
    af88:	fa200705 	.inst	0xfa200705 ; undefined
    af8c:	00000001 	udf	#1
    af90:	fa400705 	.inst	0xfa400705 ; undefined
    af94:	00000001 	udf	#1
    af98:	fa600705 	.inst	0xfa600705 ; undefined
    af9c:	00000001 	udf	#1
    afa0:	fa800705 	.inst	0xfa800705 ; undefined
    afa4:	00000001 	udf	#1
    afa8:	faa00705 	.inst	0xfaa00705 ; undefined
    afac:	00000001 	udf	#1
    afb0:	fac00705 	.inst	0xfac00705 ; undefined
    afb4:	00000001 	udf	#1
    afb8:	fae00705 	.inst	0xfae00705 ; undefined
    afbc:	00000001 	udf	#1
    afc0:	fb000705 	.inst	0xfb000705 ; undefined
    afc4:	00000001 	udf	#1
    afc8:	fb200705 	.inst	0xfb200705 ; undefined
    afcc:	00000001 	udf	#1
    afd0:	fb400705 	.inst	0xfb400705 ; undefined
    afd4:	00000001 	udf	#1
    afd8:	fb600705 	.inst	0xfb600705 ; undefined
    afdc:	00000001 	udf	#1
    afe0:	fb800705 	.inst	0xfb800705 ; undefined
    afe4:	00000001 	udf	#1
    afe8:	fba00705 	.inst	0xfba00705 ; undefined
    afec:	00000001 	udf	#1
    aff0:	fbc00705 	.inst	0xfbc00705 ; undefined
    aff4:	00000001 	udf	#1
    aff8:	fbe00705 	.inst	0xfbe00705 ; undefined
    affc:	00000001 	udf	#1
    b000:	fc000705 	str	d5, [x24], #0
    b004:	00000001 	udf	#1
    b008:	fc200705 	.inst	0xfc200705 ; undefined
    b00c:	00000001 	udf	#1
    b010:	fc400705 	ldr	d5, [x24], #0
    b014:	00000001 	udf	#1
    b018:	fc600705 	.inst	0xfc600705 ; undefined
    b01c:	00000001 	udf	#1
    b020:	fc800705 	.inst	0xfc800705 ; undefined
    b024:	00000001 	udf	#1
    b028:	fca00705 	.inst	0xfca00705 ; undefined
    b02c:	00000001 	udf	#1
    b030:	fcc00705 	.inst	0xfcc00705 ; undefined
    b034:	00000001 	udf	#1
    b038:	fce00705 	.inst	0xfce00705 ; undefined
    b03c:	00000001 	udf	#1
    b040:	fd000705 	str	d5, [x24, #8]
    b044:	00000001 	udf	#1
    b048:	fd200705 	str	d5, [x24, #16392]
    b04c:	00000001 	udf	#1
    b050:	fd400705 	ldr	d5, [x24, #8]
    b054:	00000001 	udf	#1
    b058:	fd600705 	ldr	d5, [x24, #16392]
    b05c:	00000001 	udf	#1
    b060:	fd800705 	.inst	0xfd800705 ; undefined
    b064:	00000001 	udf	#1
    b068:	fda00705 	.inst	0xfda00705 ; undefined
    b06c:	00000001 	udf	#1
    b070:	fdc00705 	.inst	0xfdc00705 ; undefined
    b074:	00000001 	udf	#1
    b078:	fde00705 	.inst	0xfde00705 ; undefined
    b07c:	00000001 	udf	#1
    b080:	fe000705 	.inst	0xfe000705 ; undefined
    b084:	00000001 	udf	#1
    b088:	fe200705 	.inst	0xfe200705 ; undefined
    b08c:	00000001 	udf	#1
    b090:	fe400705 	.inst	0xfe400705 ; undefined
    b094:	00000001 	udf	#1
    b098:	fe600705 	.inst	0xfe600705 ; undefined
    b09c:	00000001 	udf	#1
    b0a0:	fe800705 	.inst	0xfe800705 ; undefined
    b0a4:	00000001 	udf	#1
    b0a8:	fea00705 	.inst	0xfea00705 ; undefined
    b0ac:	00000001 	udf	#1
    b0b0:	fec00705 	.inst	0xfec00705 ; undefined
    b0b4:	00000001 	udf	#1
    b0b8:	fee00705 	.inst	0xfee00705 ; undefined
    b0bc:	00000001 	udf	#1
    b0c0:	ff000705 	.inst	0xff000705 ; undefined
    b0c4:	00000001 	udf	#1
    b0c8:	ff200705 	.inst	0xff200705 ; undefined
    b0cc:	00000001 	udf	#1
    b0d0:	ff400705 	.inst	0xff400705 ; undefined
    b0d4:	00000001 	udf	#1
    b0d8:	ff600705 	.inst	0xff600705 ; undefined
    b0dc:	00000001 	udf	#1
    b0e0:	ff800705 	.inst	0xff800705 ; undefined
    b0e4:	00000001 	udf	#1
    b0e8:	ffa00705 	.inst	0xffa00705 ; undefined
    b0ec:	00000001 	udf	#1
    b0f0:	ffc00705 	.inst	0xffc00705 ; undefined
    b0f4:	00000001 	udf	#1
    b0f8:	ffe00705 	.inst	0xffe00705 ; undefined
    b0fc:	00000001 	udf	#1
    b100:	00000705 	udf	#1797
    b104:	00000002 	udf	#2
    b108:	00200705 	.inst	0x00200705 ; NYI
    b10c:	00000002 	udf	#2
    b110:	00400705 	.inst	0x00400705 ; undefined
    b114:	00000002 	udf	#2
    b118:	00600705 	.inst	0x00600705 ; undefined
    b11c:	00000002 	udf	#2
    b120:	00800705 	.inst	0x00800705 ; undefined
    b124:	00000002 	udf	#2
    b128:	00a00705 	.inst	0x00a00705 ; undefined
    b12c:	00000002 	udf	#2
    b130:	00c00705 	.inst	0x00c00705 ; undefined
    b134:	00000002 	udf	#2
    b138:	00e00705 	.inst	0x00e00705 ; undefined
    b13c:	00000002 	udf	#2
    b140:	01000705 	.inst	0x01000705 ; undefined
    b144:	00000002 	udf	#2
    b148:	01200705 	.inst	0x01200705 ; undefined
    b14c:	00000002 	udf	#2
    b150:	01400705 	.inst	0x01400705 ; undefined
    b154:	00000002 	udf	#2
    b158:	01600705 	.inst	0x01600705 ; undefined
    b15c:	00000002 	udf	#2
    b160:	01800705 	.inst	0x01800705 ; undefined
    b164:	00000002 	udf	#2
    b168:	01a00705 	.inst	0x01a00705 ; undefined
    b16c:	00000002 	udf	#2
    b170:	01c00705 	.inst	0x01c00705 ; undefined
    b174:	00000002 	udf	#2
    b178:	01e00705 	.inst	0x01e00705 ; undefined
    b17c:	00000002 	udf	#2
    b180:	02000705 	.inst	0x02000705 ; undefined
    b184:	00000002 	udf	#2
    b188:	02200705 	.inst	0x02200705 ; undefined
    b18c:	00000002 	udf	#2
    b190:	02400705 	.inst	0x02400705 ; undefined
    b194:	00000002 	udf	#2
    b198:	02600705 	.inst	0x02600705 ; undefined
    b19c:	00000002 	udf	#2
    b1a0:	02800705 	.inst	0x02800705 ; undefined
    b1a4:	00000002 	udf	#2
    b1a8:	02a00705 	.inst	0x02a00705 ; undefined
    b1ac:	00000002 	udf	#2
    b1b0:	02c00705 	.inst	0x02c00705 ; undefined
    b1b4:	00000002 	udf	#2
    b1b8:	02e00705 	.inst	0x02e00705 ; undefined
    b1bc:	00000002 	udf	#2
    b1c0:	03000705 	.inst	0x03000705 ; undefined
    b1c4:	00000002 	udf	#2
    b1c8:	03200705 	.inst	0x03200705 ; undefined
    b1cc:	00000002 	udf	#2
    b1d0:	03400705 	.inst	0x03400705 ; undefined
    b1d4:	00000002 	udf	#2
    b1d8:	03600705 	.inst	0x03600705 ; undefined
    b1dc:	00000002 	udf	#2
    b1e0:	03800705 	.inst	0x03800705 ; undefined
    b1e4:	00000002 	udf	#2
    b1e8:	03a00705 	.inst	0x03a00705 ; undefined
    b1ec:	00000002 	udf	#2
    b1f0:	03c00705 	.inst	0x03c00705 ; undefined
    b1f4:	00000002 	udf	#2
    b1f8:	03e00705 	.inst	0x03e00705 ; undefined
    b1fc:	00000002 	udf	#2
    b200:	04000705 	add	z5.b, p1/m, z5.b, z24.b
    b204:	00000002 	udf	#2
    b208:	04200705 	sub	z5.b, z24.b, z0.b
    b20c:	00000002 	udf	#2
    b210:	04400705 	add	z5.h, p1/m, z5.h, z24.h
    b214:	00000002 	udf	#2
    b218:	04600705 	sub	z5.h, z24.h, z0.h
    b21c:	00000002 	udf	#2
    b220:	04800705 	add	z5.s, p1/m, z5.s, z24.s
    b224:	00000002 	udf	#2
    b228:	04a00705 	sub	z5.s, z24.s, z0.s
    b22c:	00000002 	udf	#2
    b230:	04c00705 	add	z5.d, p1/m, z5.d, z24.d
    b234:	00000002 	udf	#2
    b238:	04e00705 	sub	z5.d, z24.d, z0.d
    b23c:	00000002 	udf	#2
    b240:	05000705 	orr	z5.b, z5.b, #0x11
    b244:	00000002 	udf	#2
    b248:	05200705 	ext	z5.b, z5.b, z24.b, #1
    b24c:	00000002 	udf	#2
    b250:	05400705 	eor	z5.b, z5.b, #0x11
    b254:	00000002 	udf	#2
    b258:	05600705 	ext	z5.b, {z24.b-z25.b}, #1
    b25c:	00000002 	udf	#2
    b260:	05800705 	and	z5.b, z5.b, #0x11
    b264:	00000002 	udf	#2
    b268:	05a00705 	zip2	z5.q, z24.q, z0.q
    b26c:	00000002 	udf	#2
    b270:	05c00705 	dupm	z5.b, #0x11
    b274:	00000002 	udf	#2
    b278:	05e00705 	.inst	0x05e00705 ; undefined
    b27c:	00000002 	udf	#2
    b280:	06000705 	.inst	0x06000705 ; undefined
    b284:	00000002 	udf	#2
    b288:	06200705 	.inst	0x06200705 ; undefined
    b28c:	00000002 	udf	#2
    b290:	06400705 	.inst	0x06400705 ; undefined
    b294:	00000002 	udf	#2
    b298:	06600705 	.inst	0x06600705 ; undefined
    b29c:	00000002 	udf	#2
    b2a0:	06800705 	.inst	0x06800705 ; undefined
    b2a4:	00000002 	udf	#2
    b2a8:	06a00705 	.inst	0x06a00705 ; undefined
    b2ac:	00000002 	udf	#2
    b2b0:	06c00705 	.inst	0x06c00705 ; undefined
    b2b4:	00000002 	udf	#2
    b2b8:	06e00705 	.inst	0x06e00705 ; undefined
    b2bc:	00000002 	udf	#2
    b2c0:	07000705 	.inst	0x07000705 ; undefined
    b2c4:	00000002 	udf	#2
    b2c8:	07200705 	.inst	0x07200705 ; undefined
    b2cc:	00000002 	udf	#2
    b2d0:	07400705 	.inst	0x07400705 ; undefined
    b2d4:	00000002 	udf	#2
    b2d8:	07600705 	.inst	0x07600705 ; undefined
    b2dc:	00000002 	udf	#2
    b2e0:	07800705 	.inst	0x07800705 ; undefined
    b2e4:	00000002 	udf	#2
    b2e8:	07a00705 	.inst	0x07a00705 ; undefined
    b2ec:	00000002 	udf	#2
    b2f0:	07c00705 	.inst	0x07c00705 ; undefined
    b2f4:	00000002 	udf	#2
    b2f8:	07e00705 	.inst	0x07e00705 ; undefined
    b2fc:	00000002 	udf	#2
    b300:	08000705 	stxrb	w0, w5, [x24]
    b304:	00000002 	udf	#2
    b308:	08200705 	.inst	0x08200705 ; undefined
    b30c:	00000002 	udf	#2
    b310:	08400705 	ldxrb	w5, [x24]
    b314:	00000002 	udf	#2
    b318:	08600705 	.inst	0x08600705 ; undefined
    b31c:	00000002 	udf	#2
    b320:	08800705 	stllrb	w5, [x24]
    b324:	00000002 	udf	#2
    b328:	08a00705 	.inst	0x08a00705 ; undefined
    b32c:	00000002 	udf	#2
    b330:	08c00705 	ldlarb	w5, [x24]
    b334:	00000002 	udf	#2
    b338:	08e00705 	.inst	0x08e00705 ; undefined
    b33c:	00000002 	udf	#2
    b340:	09000705 	.inst	0x09000705 ; undefined
    b344:	00000002 	udf	#2
    b348:	09200705 	.inst	0x09200705 ; undefined
    b34c:	00000002 	udf	#2
    b350:	09400705 	.inst	0x09400705 ; undefined
    b354:	00000002 	udf	#2
    b358:	09600705 	.inst	0x09600705 ; undefined
    b35c:	00000002 	udf	#2
    b360:	09800705 	.inst	0x09800705 ; undefined
    b364:	00000002 	udf	#2
    b368:	09a00705 	.inst	0x09a00705 ; undefined
    b36c:	00000002 	udf	#2
    b370:	09c00705 	.inst	0x09c00705 ; undefined
    b374:	00000002 	udf	#2
    b378:	09e00705 	.inst	0x09e00705 ; undefined
    b37c:	00000002 	udf	#2
    b380:	0a000705 	and	w5, w24, w0, lsl #1
    b384:	00000002 	udf	#2
    b388:	0a200705 	bic	w5, w24, w0, lsl #1
    b38c:	00000002 	udf	#2
    b390:	0a400705 	and	w5, w24, w0, lsr #1
    b394:	00000002 	udf	#2
    b398:	0a600705 	bic	w5, w24, w0, lsr #1
    b39c:	00000002 	udf	#2
    b3a0:	0a800705 	and	w5, w24, w0, asr #1
    b3a4:	00000002 	udf	#2
    b3a8:	0aa00705 	bic	w5, w24, w0, asr #1
    b3ac:	00000002 	udf	#2
    b3b0:	0ac00705 	and	w5, w24, w0, ror #1
    b3b4:	00000002 	udf	#2
    b3b8:	0ae00705 	bic	w5, w24, w0, ror #1
    b3bc:	00000002 	udf	#2
    b3c0:	0b000705 	add	w5, w24, w0, lsl #1
    b3c4:	00000002 	udf	#2
    b3c8:	0b200705 	add	w5, w24, w0, uxtb #1
    b3cc:	00000002 	udf	#2
    b3d0:	0b400705 	add	w5, w24, w0, lsr #1
    b3d4:	00000002 	udf	#2
    b3d8:	0b600705 	.inst	0x0b600705 ; undefined
    b3dc:	00000002 	udf	#2
    b3e0:	0b800705 	add	w5, w24, w0, asr #1
    b3e4:	00000002 	udf	#2
    b3e8:	0ba00705 	.inst	0x0ba00705 ; undefined
    b3ec:	00000002 	udf	#2
    b3f0:	0bc00705 	.inst	0x0bc00705 ; undefined
    b3f4:	00000002 	udf	#2
    b3f8:	0be00705 	.inst	0x0be00705 ; undefined
    b3fc:	00000002 	udf	#2
    b400:	0c000705 	st4	{v5.4h-v8.4h}, [x24]
    b404:	00000002 	udf	#2
    b408:	0c200705 	.inst	0x0c200705 ; undefined
    b40c:	00000002 	udf	#2
    b410:	0c400705 	ld4	{v5.4h-v8.4h}, [x24]
    b414:	00000002 	udf	#2
    b418:	0c600705 	.inst	0x0c600705 ; undefined
    b41c:	00000002 	udf	#2
    b420:	0c800705 	st4	{v5.4h-v8.4h}, [x24], x0
    b424:	00000002 	udf	#2
    b428:	0ca00705 	.inst	0x0ca00705 ; undefined
    b42c:	00000002 	udf	#2
    b430:	0cc00705 	ld4	{v5.4h-v8.4h}, [x24], x0
    b434:	00000002 	udf	#2
    b438:	0ce00705 	.inst	0x0ce00705 ; undefined
    b43c:	00000002 	udf	#2
    b440:	0d000705 	st1	{v5.b}[1], [x24]
    b444:	00000002 	udf	#2
    b448:	0d200705 	st2	{v5.b-v6.b}[1], [x24]
    b44c:	00000002 	udf	#2
    b450:	0d400705 	ld1	{v5.b}[1], [x24]
    b454:	00000002 	udf	#2
    b458:	0d600705 	ld2	{v5.b-v6.b}[1], [x24]
    b45c:	00000002 	udf	#2
    b460:	0d800705 	st1	{v5.b}[1], [x24], x0
    b464:	00000002 	udf	#2
    b468:	0da00705 	st2	{v5.b-v6.b}[1], [x24], x0
    b46c:	00000002 	udf	#2
    b470:	0dc00705 	ld1	{v5.b}[1], [x24], x0
    b474:	00000002 	udf	#2
    b478:	0de00705 	ld2	{v5.b-v6.b}[1], [x24], x0
    b47c:	00000002 	udf	#2
    b480:	0e000705 	.inst	0x0e000705 ; undefined
    b484:	00000002 	udf	#2
    b488:	0e200705 	shadd	v5.8b, v24.8b, v0.8b
    b48c:	00000002 	udf	#2
    b490:	0e400705 	fmaxnm	v5.4h, v24.4h, v0.4h
    b494:	00000002 	udf	#2
    b498:	0e600705 	shadd	v5.4h, v24.4h, v0.4h
    b49c:	00000002 	udf	#2
    b4a0:	0e800705 	.inst	0x0e800705 ; undefined
    b4a4:	00000002 	udf	#2
    b4a8:	0ea00705 	shadd	v5.2s, v24.2s, v0.2s
    b4ac:	00000002 	udf	#2
    b4b0:	0ec00705 	fminnm	v5.4h, v24.4h, v0.4h
    b4b4:	00000002 	udf	#2
    b4b8:	0ee00705 	.inst	0x0ee00705 ; undefined
    b4bc:	00000002 	udf	#2
    b4c0:	0f000705 	movi	v5.2s, #0x18
    b4c4:	00000002 	udf	#2
    b4c8:	0f200705 	sshr	v5.2s, v24.2s, #32
    b4cc:	00000002 	udf	#2
    b4d0:	0f400705 	.inst	0x0f400705 ; undefined
    b4d4:	00000002 	udf	#2
    b4d8:	0f600705 	.inst	0x0f600705 ; undefined
    b4dc:	00000002 	udf	#2
    b4e0:	0f800705 	.inst	0x0f800705 ; undefined
    b4e4:	00000002 	udf	#2
    b4e8:	0fa00705 	.inst	0x0fa00705 ; undefined
    b4ec:	00000002 	udf	#2
    b4f0:	0fc00705 	.inst	0x0fc00705 ; undefined
    b4f4:	00000002 	udf	#2
    b4f8:	0fe00705 	.inst	0x0fe00705 ; undefined
    b4fc:	00000002 	udf	#2
    b500:	10000705 	adr	x5, b5e0 <MMUTableL2.2+0x44e0>
    b504:	00000002 	udf	#2
    b508:	10200705 	adr	x5, 4b5e8 <__stack_end+0x34858>
    b50c:	00000002 	udf	#2
    b510:	10400705 	adr	x5, 8b5f0 <__stack_end+0x74860>
    b514:	00000002 	udf	#2
    b518:	10600705 	adr	x5, cb5f8 <__stack_end+0xb4868>
    b51c:	00000002 	udf	#2
    b520:	10800705 	adr	x5, fffffffffff0b600 <DEVICE+0xff9ffffffff0b1f7>
    b524:	00000002 	udf	#2
    b528:	10a00705 	adr	x5, fffffffffff4b608 <DEVICE+0xff9ffffffff4b1ff>
    b52c:	00000002 	udf	#2
    b530:	10c00705 	adr	x5, fffffffffff8b610 <DEVICE+0xff9ffffffff8b207>
    b534:	00000002 	udf	#2
    b538:	10e00705 	adr	x5, fffffffffffcb618 <DEVICE+0xff9ffffffffcb20f>
    b53c:	00000002 	udf	#2
    b540:	11000705 	add	w5, w24, #0x1
    b544:	00000002 	udf	#2
    b548:	11200705 	add	w5, w24, #0x801
    b54c:	00000002 	udf	#2
    b550:	11400705 	add	w5, w24, #0x1, lsl #12
    b554:	00000002 	udf	#2
    b558:	11600705 	add	w5, w24, #0x801, lsl #12
    b55c:	00000002 	udf	#2
    b560:	11800705 	.inst	0x11800705 ; undefined
    b564:	00000002 	udf	#2
    b568:	11a00705 	.inst	0x11a00705 ; undefined
    b56c:	00000002 	udf	#2
    b570:	11c00705 	smax	w5, w24, #1
    b574:	00000002 	udf	#2
    b578:	11e00705 	.inst	0x11e00705 ; undefined
    b57c:	00000002 	udf	#2
    b580:	12000705 	and	w5, w24, #0x3
    b584:	00000002 	udf	#2
    b588:	12200705 	and	w5, w24, #0x3
    b58c:	00000002 	udf	#2
    b590:	12400705 	.inst	0x12400705 ; undefined
    b594:	00000002 	udf	#2
    b598:	12600705 	.inst	0x12600705 ; undefined
    b59c:	00000002 	udf	#2
    b5a0:	12800705 	mov	w5, #0xffffffc7            	// #-57
    b5a4:	00000002 	udf	#2
    b5a8:	12a00705 	mov	w5, #0xffc7ffff            	// #-3670017
    b5ac:	00000002 	udf	#2
    b5b0:	12c00705 	.inst	0x12c00705 ; undefined
    b5b4:	00000002 	udf	#2
    b5b8:	12e00705 	.inst	0x12e00705 ; undefined
    b5bc:	00000002 	udf	#2
    b5c0:	13000705 	sbfx	w5, w24, #0, #2
    b5c4:	00000002 	udf	#2
    b5c8:	13200705 	.inst	0x13200705 ; undefined
    b5cc:	00000002 	udf	#2
    b5d0:	13400705 	.inst	0x13400705 ; undefined
    b5d4:	00000002 	udf	#2
    b5d8:	13600705 	.inst	0x13600705 ; undefined
    b5dc:	00000002 	udf	#2
    b5e0:	13800705 	extr	w5, w24, w0, #1
    b5e4:	00000002 	udf	#2
    b5e8:	13a00705 	.inst	0x13a00705 ; undefined
    b5ec:	00000002 	udf	#2
    b5f0:	13c00705 	.inst	0x13c00705 ; undefined
    b5f4:	00000002 	udf	#2
    b5f8:	13e00705 	.inst	0x13e00705 ; undefined
    b5fc:	00000002 	udf	#2
    b600:	14000705 	b	d214 <MMUTableL2.2+0x6114>
    b604:	00000002 	udf	#2
    b608:	14200705 	b	80d21c <__buffer_end+0x50d21c>
    b60c:	00000002 	udf	#2
    b610:	14400705 	b	100d224 <__buffer_end+0xd0d224>
    b614:	00000002 	udf	#2
    b618:	14600705 	b	180d22c <__buffer_end+0x150d22c>
    b61c:	00000002 	udf	#2
    b620:	14800705 	b	200d234 <__buffer_end+0x1d0d234>
    b624:	00000002 	udf	#2
    b628:	14a00705 	b	280d23c <__buffer_end+0x250d23c>
    b62c:	00000002 	udf	#2
    b630:	14c00705 	b	300d244 <__buffer_end+0x2d0d244>
    b634:	00000002 	udf	#2
    b638:	14e00705 	b	380d24c <__buffer_end+0x350d24c>
    b63c:	00000002 	udf	#2
    b640:	15000705 	b	400d254 <__buffer_end+0x3d0d254>
    b644:	00000002 	udf	#2
    b648:	15200705 	b	480d25c <__buffer_end+0x450d25c>
    b64c:	00000002 	udf	#2
    b650:	15400705 	b	500d264 <__buffer_end+0x4d0d264>
    b654:	00000002 	udf	#2
    b658:	15600705 	b	580d26c <__buffer_end+0x550d26c>
    b65c:	00000002 	udf	#2
    b660:	15800705 	b	600d274 <__buffer_end+0x5d0d274>
    b664:	00000002 	udf	#2
    b668:	15a00705 	b	680d27c <__buffer_end+0x650d27c>
    b66c:	00000002 	udf	#2
    b670:	15c00705 	b	700d284 <__buffer_end+0x6d0d284>
    b674:	00000002 	udf	#2
    b678:	15e00705 	b	780d28c <__buffer_end+0x750d28c>
    b67c:	00000002 	udf	#2
    b680:	16000705 	b	fffffffff800d294 <DEVICE+0xff9ffffff800ce8b>
    b684:	00000002 	udf	#2
    b688:	16200705 	b	fffffffff880d29c <DEVICE+0xff9ffffff880ce93>
    b68c:	00000002 	udf	#2
    b690:	16400705 	b	fffffffff900d2a4 <DEVICE+0xff9ffffff900ce9b>
    b694:	00000002 	udf	#2
    b698:	16600705 	b	fffffffff980d2ac <DEVICE+0xff9ffffff980cea3>
    b69c:	00000002 	udf	#2
    b6a0:	16800705 	b	fffffffffa00d2b4 <DEVICE+0xff9ffffffa00ceab>
    b6a4:	00000002 	udf	#2
    b6a8:	16a00705 	b	fffffffffa80d2bc <DEVICE+0xff9ffffffa80ceb3>
    b6ac:	00000002 	udf	#2
    b6b0:	16c00705 	b	fffffffffb00d2c4 <DEVICE+0xff9ffffffb00cebb>
    b6b4:	00000002 	udf	#2
    b6b8:	16e00705 	b	fffffffffb80d2cc <DEVICE+0xff9ffffffb80cec3>
    b6bc:	00000002 	udf	#2
    b6c0:	17000705 	b	fffffffffc00d2d4 <DEVICE+0xff9ffffffc00cecb>
    b6c4:	00000002 	udf	#2
    b6c8:	17200705 	b	fffffffffc80d2dc <DEVICE+0xff9ffffffc80ced3>
    b6cc:	00000002 	udf	#2
    b6d0:	17400705 	b	fffffffffd00d2e4 <DEVICE+0xff9ffffffd00cedb>
    b6d4:	00000002 	udf	#2
    b6d8:	17600705 	b	fffffffffd80d2ec <DEVICE+0xff9ffffffd80cee3>
    b6dc:	00000002 	udf	#2
    b6e0:	17800705 	b	fffffffffe00d2f4 <DEVICE+0xff9ffffffe00ceeb>
    b6e4:	00000002 	udf	#2
    b6e8:	17a00705 	b	fffffffffe80d2fc <DEVICE+0xff9ffffffe80cef3>
    b6ec:	00000002 	udf	#2
    b6f0:	17c00705 	b	ffffffffff00d304 <DEVICE+0xff9fffffff00cefb>
    b6f4:	00000002 	udf	#2
    b6f8:	17e00705 	b	ffffffffff80d30c <DEVICE+0xff9fffffff80cf03>
    b6fc:	00000002 	udf	#2
    b700:	18000705 	ldr	w5, b7e0 <MMUTableL2.2+0x46e0>
    b704:	00000002 	udf	#2
    b708:	18200705 	ldr	w5, 4b7e8 <__stack_end+0x34a58>
    b70c:	00000002 	udf	#2
    b710:	18400705 	ldr	w5, 8b7f0 <__stack_end+0x74a60>
    b714:	00000002 	udf	#2
    b718:	18600705 	ldr	w5, cb7f8 <__stack_end+0xb4a68>
    b71c:	00000002 	udf	#2
    b720:	18800705 	ldr	w5, fffffffffff0b800 <DEVICE+0xff9ffffffff0b3f7>
    b724:	00000002 	udf	#2
    b728:	18a00705 	ldr	w5, fffffffffff4b808 <DEVICE+0xff9ffffffff4b3ff>
    b72c:	00000002 	udf	#2
    b730:	18c00705 	ldr	w5, fffffffffff8b810 <DEVICE+0xff9ffffffff8b407>
    b734:	00000002 	udf	#2
    b738:	18e00705 	ldr	w5, fffffffffffcb818 <DEVICE+0xff9ffffffffcb40f>
    b73c:	00000002 	udf	#2
    b740:	19000705 	cpyfp	[x5]!, [x0]!, x24!
    b744:	00000002 	udf	#2
    b748:	19200705 	.inst	0x19200705 ; undefined
    b74c:	00000002 	udf	#2
    b750:	19400705 	cpyfm	[x5]!, [x0]!, x24!
    b754:	00000002 	udf	#2
    b758:	19600705 	.inst	0x19600705 ; undefined
    b75c:	00000002 	udf	#2
    b760:	19800705 	cpyfe	[x5]!, [x0]!, x24!
    b764:	00000002 	udf	#2
    b768:	19a00705 	.inst	0x19a00705 ; undefined
    b76c:	00000002 	udf	#2
    b770:	19c00705 	setp	[x5]!, x24!, x0
    b774:	00000002 	udf	#2
    b778:	19e00705 	.inst	0x19e00705 ; undefined
    b77c:	00000002 	udf	#2
    b780:	1a000705 	.inst	0x1a000705 ; undefined
    b784:	00000002 	udf	#2
    b788:	1a200705 	.inst	0x1a200705 ; undefined
    b78c:	00000002 	udf	#2
    b790:	1a400705 	.inst	0x1a400705 ; undefined
    b794:	00000002 	udf	#2
    b798:	1a600705 	.inst	0x1a600705 ; undefined
    b79c:	00000002 	udf	#2
    b7a0:	1a800705 	csinc	w5, w24, w0, eq	// eq = none
    b7a4:	00000002 	udf	#2
    b7a8:	1aa00705 	.inst	0x1aa00705 ; undefined
    b7ac:	00000002 	udf	#2
    b7b0:	1ac00705 	.inst	0x1ac00705 ; undefined
    b7b4:	00000002 	udf	#2
    b7b8:	1ae00705 	.inst	0x1ae00705 ; undefined
    b7bc:	00000002 	udf	#2
    b7c0:	1b000705 	madd	w5, w24, w0, w1
    b7c4:	00000002 	udf	#2
    b7c8:	1b200705 	.inst	0x1b200705 ; undefined
    b7cc:	00000002 	udf	#2
    b7d0:	1b400705 	.inst	0x1b400705 ; undefined
    b7d4:	00000002 	udf	#2
    b7d8:	1b600705 	.inst	0x1b600705 ; undefined
    b7dc:	00000002 	udf	#2
    b7e0:	1b800705 	.inst	0x1b800705 ; undefined
    b7e4:	00000002 	udf	#2
    b7e8:	1ba00705 	.inst	0x1ba00705 ; undefined
    b7ec:	00000002 	udf	#2
    b7f0:	1bc00705 	.inst	0x1bc00705 ; undefined
    b7f4:	00000002 	udf	#2
    b7f8:	1be00705 	.inst	0x1be00705 ; undefined
    b7fc:	00000002 	udf	#2
    b800:	1c000705 	ldr	s5, b8e0 <MMUTableL2.2+0x47e0>
    b804:	00000002 	udf	#2
    b808:	1c200705 	ldr	s5, 4b8e8 <__stack_end+0x34b58>
    b80c:	00000002 	udf	#2
    b810:	1c400705 	ldr	s5, 8b8f0 <__stack_end+0x74b60>
    b814:	00000002 	udf	#2
    b818:	1c600705 	ldr	s5, cb8f8 <__stack_end+0xb4b68>
    b81c:	00000002 	udf	#2
    b820:	1c800705 	ldr	s5, fffffffffff0b900 <DEVICE+0xff9ffffffff0b4f7>
    b824:	00000002 	udf	#2
    b828:	1ca00705 	ldr	s5, fffffffffff4b908 <DEVICE+0xff9ffffffff4b4ff>
    b82c:	00000002 	udf	#2
    b830:	1cc00705 	ldr	s5, fffffffffff8b910 <DEVICE+0xff9ffffffff8b507>
    b834:	00000002 	udf	#2
    b838:	1ce00705 	ldr	s5, fffffffffffcb918 <DEVICE+0xff9ffffffffcb50f>
    b83c:	00000002 	udf	#2
    b840:	1d000705 	cpyp	[x5]!, [x0]!, x24!
    b844:	00000002 	udf	#2
    b848:	1d200705 	.inst	0x1d200705 ; undefined
    b84c:	00000002 	udf	#2
    b850:	1d400705 	cpym	[x5]!, [x0]!, x24!
    b854:	00000002 	udf	#2
    b858:	1d600705 	.inst	0x1d600705 ; undefined
    b85c:	00000002 	udf	#2
    b860:	1d800705 	cpye	[x5]!, [x0]!, x24!
    b864:	00000002 	udf	#2
    b868:	1da00705 	.inst	0x1da00705 ; undefined
    b86c:	00000002 	udf	#2
    b870:	1dc00705 	setgp	[x5]!, x24!, x0
    b874:	00000002 	udf	#2
    b878:	1de00705 	.inst	0x1de00705 ; undefined
    b87c:	00000002 	udf	#2
    b880:	1e000705 	.inst	0x1e000705 ; undefined
    b884:	00000002 	udf	#2
    b888:	1e200705 	fccmp	s24, s0, #0x5, eq	// eq = none
    b88c:	00000002 	udf	#2
    b890:	1e400705 	.inst	0x1e400705 ; undefined
    b894:	00000002 	udf	#2
    b898:	1e600705 	fccmp	d24, d0, #0x5, eq	// eq = none
    b89c:	00000002 	udf	#2
    b8a0:	1e800705 	.inst	0x1e800705 ; undefined
    b8a4:	00000002 	udf	#2
    b8a8:	1ea00705 	.inst	0x1ea00705 ; undefined
    b8ac:	00000002 	udf	#2
    b8b0:	1ec00705 	.inst	0x1ec00705 ; undefined
    b8b4:	00000002 	udf	#2
    b8b8:	1ee00705 	fccmp	h24, h0, #0x5, eq	// eq = none
    b8bc:	00000002 	udf	#2
    b8c0:	1f000705 	fmadd	s5, s24, s0, s1
    b8c4:	00000002 	udf	#2
    b8c8:	1f200705 	fnmadd	s5, s24, s0, s1
    b8cc:	00000002 	udf	#2
    b8d0:	1f400705 	fmadd	d5, d24, d0, d1
    b8d4:	00000002 	udf	#2
    b8d8:	1f600705 	fnmadd	d5, d24, d0, d1
    b8dc:	00000002 	udf	#2
    b8e0:	1f800705 	.inst	0x1f800705 ; undefined
    b8e4:	00000002 	udf	#2
    b8e8:	1fa00705 	.inst	0x1fa00705 ; undefined
    b8ec:	00000002 	udf	#2
    b8f0:	1fc00705 	fmadd	h5, h24, h0, h1
    b8f4:	00000002 	udf	#2
    b8f8:	1fe00705 	fnmadd	h5, h24, h0, h1
    b8fc:	00000002 	udf	#2
    b900:	20000705 	.inst	0x20000705 ; undefined
    b904:	00000002 	udf	#2
    b908:	20200705 	.inst	0x20200705 ; undefined
    b90c:	00000002 	udf	#2
    b910:	20400705 	.inst	0x20400705 ; undefined
    b914:	00000002 	udf	#2
    b918:	20600705 	.inst	0x20600705 ; undefined
    b91c:	00000002 	udf	#2
    b920:	20800705 	.inst	0x20800705 ; undefined
    b924:	00000002 	udf	#2
    b928:	20a00705 	.inst	0x20a00705 ; undefined
    b92c:	00000002 	udf	#2
    b930:	20c00705 	.inst	0x20c00705 ; undefined
    b934:	00000002 	udf	#2
    b938:	20e00705 	.inst	0x20e00705 ; undefined
    b93c:	00000002 	udf	#2
    b940:	21000705 	.inst	0x21000705 ; undefined
    b944:	00000002 	udf	#2
    b948:	21200705 	.inst	0x21200705 ; undefined
    b94c:	00000002 	udf	#2
    b950:	21400705 	.inst	0x21400705 ; undefined
    b954:	00000002 	udf	#2
    b958:	21600705 	.inst	0x21600705 ; undefined
    b95c:	00000002 	udf	#2
    b960:	21800705 	.inst	0x21800705 ; undefined
    b964:	00000002 	udf	#2
    b968:	21a00705 	.inst	0x21a00705 ; undefined
    b96c:	00000002 	udf	#2
    b970:	21c00705 	.inst	0x21c00705 ; undefined
    b974:	00000002 	udf	#2
    b978:	21e00705 	.inst	0x21e00705 ; undefined
    b97c:	00000002 	udf	#2
    b980:	22000705 	.inst	0x22000705 ; undefined
    b984:	00000002 	udf	#2
    b988:	22200705 	.inst	0x22200705 ; undefined
    b98c:	00000002 	udf	#2
    b990:	22400705 	.inst	0x22400705 ; undefined
    b994:	00000002 	udf	#2
    b998:	22600705 	.inst	0x22600705 ; undefined
    b99c:	00000002 	udf	#2
    b9a0:	22800705 	.inst	0x22800705 ; undefined
    b9a4:	00000002 	udf	#2
    b9a8:	22a00705 	.inst	0x22a00705 ; undefined
    b9ac:	00000002 	udf	#2
    b9b0:	22c00705 	.inst	0x22c00705 ; undefined
    b9b4:	00000002 	udf	#2
    b9b8:	22e00705 	.inst	0x22e00705 ; undefined
    b9bc:	00000002 	udf	#2
    b9c0:	23000705 	.inst	0x23000705 ; undefined
    b9c4:	00000002 	udf	#2
    b9c8:	23200705 	.inst	0x23200705 ; undefined
    b9cc:	00000002 	udf	#2
    b9d0:	23400705 	.inst	0x23400705 ; undefined
    b9d4:	00000002 	udf	#2
    b9d8:	23600705 	.inst	0x23600705 ; undefined
    b9dc:	00000002 	udf	#2
    b9e0:	23800705 	.inst	0x23800705 ; undefined
    b9e4:	00000002 	udf	#2
    b9e8:	23a00705 	.inst	0x23a00705 ; undefined
    b9ec:	00000002 	udf	#2
    b9f0:	23c00705 	.inst	0x23c00705 ; undefined
    b9f4:	00000002 	udf	#2
    b9f8:	23e00705 	.inst	0x23e00705 ; undefined
    b9fc:	00000002 	udf	#2
    ba00:	24000705 	cmphs	p5.b, p1/z, z24.b, z0.b
    ba04:	00000002 	udf	#2
    ba08:	24200705 	cmphs	p5.b, p1/z, z24.b, #0
    ba0c:	00000002 	udf	#2
    ba10:	24400705 	cmphs	p5.h, p1/z, z24.h, z0.h
    ba14:	00000002 	udf	#2
    ba18:	24600705 	cmphs	p5.h, p1/z, z24.h, #0
    ba1c:	00000002 	udf	#2
    ba20:	24800705 	cmphs	p5.s, p1/z, z24.s, z0.s
    ba24:	00000002 	udf	#2
    ba28:	24a00705 	cmphs	p5.s, p1/z, z24.s, #0
    ba2c:	00000002 	udf	#2
    ba30:	24c00705 	cmphs	p5.d, p1/z, z24.d, z0.d
    ba34:	00000002 	udf	#2
    ba38:	24e00705 	cmphs	p5.d, p1/z, z24.d, #0
    ba3c:	00000002 	udf	#2
    ba40:	25000705 	cmpge	p5.b, p1/z, z24.b, #0
    ba44:	00000002 	udf	#2
    ba48:	25200705 	whilelt	p5.b, w24, w0
    ba4c:	00000002 	udf	#2
    ba50:	25400705 	cmpge	p5.h, p1/z, z24.h, #0
    ba54:	00000002 	udf	#2
    ba58:	25600705 	whilelt	p5.h, w24, w0
    ba5c:	00000002 	udf	#2
    ba60:	25800705 	cmpge	p5.s, p1/z, z24.s, #0
    ba64:	00000002 	udf	#2
    ba68:	25a00705 	whilelt	p5.s, w24, w0
    ba6c:	00000002 	udf	#2
    ba70:	25c00705 	cmpge	p5.d, p1/z, z24.d, #0
    ba74:	00000002 	udf	#2
    ba78:	25e00705 	whilelt	p5.d, w24, w0
    ba7c:	00000002 	udf	#2
    ba80:	26000705 	.inst	0x26000705 ; undefined
    ba84:	00000002 	udf	#2
    ba88:	26200705 	.inst	0x26200705 ; undefined
    ba8c:	00000002 	udf	#2
    ba90:	26400705 	.inst	0x26400705 ; undefined
    ba94:	00000002 	udf	#2
    ba98:	26600705 	.inst	0x26600705 ; undefined
    ba9c:	00000002 	udf	#2
    baa0:	26800705 	.inst	0x26800705 ; undefined
    baa4:	00000002 	udf	#2
    baa8:	26a00705 	.inst	0x26a00705 ; undefined
    baac:	00000002 	udf	#2
    bab0:	26c00705 	.inst	0x26c00705 ; undefined
    bab4:	00000002 	udf	#2
    bab8:	26e00705 	.inst	0x26e00705 ; undefined
    babc:	00000002 	udf	#2
    bac0:	27000705 	.inst	0x27000705 ; undefined
    bac4:	00000002 	udf	#2
    bac8:	27200705 	.inst	0x27200705 ; undefined
    bacc:	00000002 	udf	#2
    bad0:	27400705 	.inst	0x27400705 ; undefined
    bad4:	00000002 	udf	#2
    bad8:	27600705 	.inst	0x27600705 ; undefined
    badc:	00000002 	udf	#2
    bae0:	27800705 	.inst	0x27800705 ; undefined
    bae4:	00000002 	udf	#2
    bae8:	27a00705 	.inst	0x27a00705 ; undefined
    baec:	00000002 	udf	#2
    baf0:	27c00705 	.inst	0x27c00705 ; undefined
    baf4:	00000002 	udf	#2
    baf8:	27e00705 	.inst	0x27e00705 ; undefined
    bafc:	00000002 	udf	#2
    bb00:	28000705 	stnp	w5, w1, [x24]
    bb04:	00000002 	udf	#2
    bb08:	28200705 	stnp	w5, w1, [x24, #-256]
    bb0c:	00000002 	udf	#2
    bb10:	28400705 	ldnp	w5, w1, [x24]
    bb14:	00000002 	udf	#2
    bb18:	28600705 	ldnp	w5, w1, [x24, #-256]
    bb1c:	00000002 	udf	#2
    bb20:	28800705 	stp	w5, w1, [x24], #0
    bb24:	00000002 	udf	#2
    bb28:	28a00705 	stp	w5, w1, [x24], #-256
    bb2c:	00000002 	udf	#2
    bb30:	28c00705 	ldp	w5, w1, [x24], #0
    bb34:	00000002 	udf	#2
    bb38:	28e00705 	ldp	w5, w1, [x24], #-256
    bb3c:	00000002 	udf	#2
    bb40:	29000705 	stp	w5, w1, [x24]
    bb44:	00000002 	udf	#2
    bb48:	29200705 	stp	w5, w1, [x24, #-256]
    bb4c:	00000002 	udf	#2
    bb50:	29400705 	ldp	w5, w1, [x24]
    bb54:	00000002 	udf	#2
    bb58:	29600705 	ldp	w5, w1, [x24, #-256]
    bb5c:	00000002 	udf	#2
    bb60:	29800705 	stp	w5, w1, [x24, #0]!
    bb64:	00000002 	udf	#2
    bb68:	29a00705 	stp	w5, w1, [x24, #-256]!
    bb6c:	00000002 	udf	#2
    bb70:	29c00705 	ldp	w5, w1, [x24, #0]!
    bb74:	00000002 	udf	#2
    bb78:	29e00705 	ldp	w5, w1, [x24, #-256]!
    bb7c:	00000002 	udf	#2
    bb80:	2a000705 	orr	w5, w24, w0, lsl #1
    bb84:	00000002 	udf	#2
    bb88:	2a200705 	orn	w5, w24, w0, lsl #1
    bb8c:	00000002 	udf	#2
    bb90:	2a400705 	orr	w5, w24, w0, lsr #1
    bb94:	00000002 	udf	#2
    bb98:	2a600705 	orn	w5, w24, w0, lsr #1
    bb9c:	00000002 	udf	#2
    bba0:	2a800705 	orr	w5, w24, w0, asr #1
    bba4:	00000002 	udf	#2
    bba8:	2aa00705 	orn	w5, w24, w0, asr #1
    bbac:	00000002 	udf	#2
    bbb0:	2ac00705 	orr	w5, w24, w0, ror #1
    bbb4:	00000002 	udf	#2
    bbb8:	2ae00705 	orn	w5, w24, w0, ror #1
    bbbc:	00000002 	udf	#2
    bbc0:	2b000705 	adds	w5, w24, w0, lsl #1
    bbc4:	00000002 	udf	#2
    bbc8:	2b200705 	adds	w5, w24, w0, uxtb #1
    bbcc:	00000002 	udf	#2
    bbd0:	2b400705 	adds	w5, w24, w0, lsr #1
    bbd4:	00000002 	udf	#2
    bbd8:	2b600705 	.inst	0x2b600705 ; undefined
    bbdc:	00000002 	udf	#2
    bbe0:	2b800705 	adds	w5, w24, w0, asr #1
    bbe4:	00000002 	udf	#2
    bbe8:	2ba00705 	.inst	0x2ba00705 ; undefined
    bbec:	00000002 	udf	#2
    bbf0:	2bc00705 	.inst	0x2bc00705 ; undefined
    bbf4:	00000002 	udf	#2
    bbf8:	2be00705 	.inst	0x2be00705 ; undefined
    bbfc:	00000002 	udf	#2
    bc00:	2c000705 	stnp	s5, s1, [x24]
    bc04:	00000002 	udf	#2
    bc08:	2c200705 	stnp	s5, s1, [x24, #-256]
    bc0c:	00000002 	udf	#2
    bc10:	2c400705 	ldnp	s5, s1, [x24]
    bc14:	00000002 	udf	#2
    bc18:	2c600705 	ldnp	s5, s1, [x24, #-256]
    bc1c:	00000002 	udf	#2
    bc20:	2c800705 	stp	s5, s1, [x24], #0
    bc24:	00000002 	udf	#2
    bc28:	2ca00705 	stp	s5, s1, [x24], #-256
    bc2c:	00000002 	udf	#2
    bc30:	2cc00705 	ldp	s5, s1, [x24], #0
    bc34:	00000002 	udf	#2
    bc38:	2ce00705 	ldp	s5, s1, [x24], #-256
    bc3c:	00000002 	udf	#2
    bc40:	2d000705 	stp	s5, s1, [x24]
    bc44:	00000002 	udf	#2
    bc48:	2d200705 	stp	s5, s1, [x24, #-256]
    bc4c:	00000002 	udf	#2
    bc50:	2d400705 	ldp	s5, s1, [x24]
    bc54:	00000002 	udf	#2
    bc58:	2d600705 	ldp	s5, s1, [x24, #-256]
    bc5c:	00000002 	udf	#2
    bc60:	2d800705 	stp	s5, s1, [x24, #0]!
    bc64:	00000002 	udf	#2
    bc68:	2da00705 	stp	s5, s1, [x24, #-256]!
    bc6c:	00000002 	udf	#2
    bc70:	2dc00705 	ldp	s5, s1, [x24, #0]!
    bc74:	00000002 	udf	#2
    bc78:	2de00705 	ldp	s5, s1, [x24, #-256]!
    bc7c:	00000002 	udf	#2
    bc80:	2e000705 	.inst	0x2e000705 ; undefined
    bc84:	00000002 	udf	#2
    bc88:	2e200705 	uhadd	v5.8b, v24.8b, v0.8b
    bc8c:	00000002 	udf	#2
    bc90:	2e400705 	fmaxnmp	v5.4h, v24.4h, v0.4h
    bc94:	00000002 	udf	#2
    bc98:	2e600705 	uhadd	v5.4h, v24.4h, v0.4h
    bc9c:	00000002 	udf	#2
    bca0:	2e800705 	.inst	0x2e800705 ; undefined
    bca4:	00000002 	udf	#2
    bca8:	2ea00705 	uhadd	v5.2s, v24.2s, v0.2s
    bcac:	00000002 	udf	#2
    bcb0:	2ec00705 	fminnmp	v5.4h, v24.4h, v0.4h
    bcb4:	00000002 	udf	#2
    bcb8:	2ee00705 	.inst	0x2ee00705 ; undefined
    bcbc:	00000002 	udf	#2
    bcc0:	2f000705 	mvni	v5.2s, #0x18
    bcc4:	00000002 	udf	#2
    bcc8:	2f200705 	ushr	v5.2s, v24.2s, #32
    bccc:	00000002 	udf	#2
    bcd0:	2f400705 	.inst	0x2f400705 ; undefined
    bcd4:	00000002 	udf	#2
    bcd8:	2f600705 	.inst	0x2f600705 ; undefined
    bcdc:	00000002 	udf	#2
    bce0:	2f800705 	.inst	0x2f800705 ; undefined
    bce4:	00000002 	udf	#2
    bce8:	2fa00705 	.inst	0x2fa00705 ; undefined
    bcec:	00000002 	udf	#2
    bcf0:	2fc00705 	.inst	0x2fc00705 ; undefined
    bcf4:	00000002 	udf	#2
    bcf8:	2fe00705 	.inst	0x2fe00705 ; undefined
    bcfc:	00000002 	udf	#2
    bd00:	30000705 	adr	x5, bde1 <MMUTableL2.2+0x4ce1>
    bd04:	00000002 	udf	#2
    bd08:	30200705 	adr	x5, 4bde9 <__stack_end+0x35059>
    bd0c:	00000002 	udf	#2
    bd10:	30400705 	adr	x5, 8bdf1 <__stack_end+0x75061>
    bd14:	00000002 	udf	#2
    bd18:	30600705 	adr	x5, cbdf9 <__stack_end+0xb5069>
    bd1c:	00000002 	udf	#2
    bd20:	30800705 	adr	x5, fffffffffff0be01 <DEVICE+0xff9ffffffff0b9f8>
    bd24:	00000002 	udf	#2
    bd28:	30a00705 	adr	x5, fffffffffff4be09 <DEVICE+0xff9ffffffff4ba00>
    bd2c:	00000002 	udf	#2
    bd30:	30c00705 	adr	x5, fffffffffff8be11 <DEVICE+0xff9ffffffff8ba08>
    bd34:	00000002 	udf	#2
    bd38:	30e00705 	adr	x5, fffffffffffcbe19 <DEVICE+0xff9ffffffffcba10>
    bd3c:	00000002 	udf	#2
    bd40:	31000705 	adds	w5, w24, #0x1
    bd44:	00000002 	udf	#2
    bd48:	31200705 	adds	w5, w24, #0x801
    bd4c:	00000002 	udf	#2
    bd50:	31400705 	adds	w5, w24, #0x1, lsl #12
    bd54:	00000002 	udf	#2
    bd58:	31600705 	adds	w5, w24, #0x801, lsl #12
    bd5c:	00000002 	udf	#2
    bd60:	31800705 	.inst	0x31800705 ; undefined
    bd64:	00000002 	udf	#2
    bd68:	31a00705 	.inst	0x31a00705 ; undefined
    bd6c:	00000002 	udf	#2
    bd70:	31c00705 	.inst	0x31c00705 ; undefined
    bd74:	00000002 	udf	#2
    bd78:	31e00705 	.inst	0x31e00705 ; undefined
    bd7c:	00000002 	udf	#2
    bd80:	32000705 	orr	w5, w24, #0x3
    bd84:	00000002 	udf	#2
    bd88:	32200705 	orr	w5, w24, #0x3
    bd8c:	00000002 	udf	#2
    bd90:	32400705 	.inst	0x32400705 ; undefined
    bd94:	00000002 	udf	#2
    bd98:	32600705 	.inst	0x32600705 ; undefined
    bd9c:	00000002 	udf	#2
    bda0:	32800705 	.inst	0x32800705 ; undefined
    bda4:	00000002 	udf	#2
    bda8:	32a00705 	.inst	0x32a00705 ; undefined
    bdac:	00000002 	udf	#2
    bdb0:	32c00705 	.inst	0x32c00705 ; undefined
    bdb4:	00000002 	udf	#2
    bdb8:	32e00705 	.inst	0x32e00705 ; undefined
    bdbc:	00000002 	udf	#2
    bdc0:	33000705 	bfxil	w5, w24, #0, #2
    bdc4:	00000002 	udf	#2
    bdc8:	33200705 	.inst	0x33200705 ; undefined
    bdcc:	00000002 	udf	#2
    bdd0:	33400705 	.inst	0x33400705 ; undefined
    bdd4:	00000002 	udf	#2
    bdd8:	33600705 	.inst	0x33600705 ; undefined
    bddc:	00000002 	udf	#2
    bde0:	33800705 	.inst	0x33800705 ; undefined
    bde4:	00000002 	udf	#2
    bde8:	33a00705 	.inst	0x33a00705 ; undefined
    bdec:	00000002 	udf	#2
    bdf0:	33c00705 	.inst	0x33c00705 ; undefined
    bdf4:	00000002 	udf	#2
    bdf8:	33e00705 	.inst	0x33e00705 ; undefined
    bdfc:	00000002 	udf	#2
    be00:	34000705 	cbz	w5, bee0 <MMUTableL2.2+0x4de0>
    be04:	00000002 	udf	#2
    be08:	34200705 	cbz	w5, 4bee8 <__stack_end+0x35158>
    be0c:	00000002 	udf	#2
    be10:	34400705 	cbz	w5, 8bef0 <__stack_end+0x75160>
    be14:	00000002 	udf	#2
    be18:	34600705 	cbz	w5, cbef8 <__stack_end+0xb5168>
    be1c:	00000002 	udf	#2
    be20:	34800705 	cbz	w5, fffffffffff0bf00 <DEVICE+0xff9ffffffff0baf7>
    be24:	00000002 	udf	#2
    be28:	34a00705 	cbz	w5, fffffffffff4bf08 <DEVICE+0xff9ffffffff4baff>
    be2c:	00000002 	udf	#2
    be30:	34c00705 	cbz	w5, fffffffffff8bf10 <DEVICE+0xff9ffffffff8bb07>
    be34:	00000002 	udf	#2
    be38:	34e00705 	cbz	w5, fffffffffffcbf18 <DEVICE+0xff9ffffffffcbb0f>
    be3c:	00000002 	udf	#2
    be40:	35000705 	cbnz	w5, bf20 <MMUTableL2.2+0x4e20>
    be44:	00000002 	udf	#2
    be48:	35200705 	cbnz	w5, 4bf28 <__stack_end+0x35198>
    be4c:	00000002 	udf	#2
    be50:	35400705 	cbnz	w5, 8bf30 <__stack_end+0x751a0>
    be54:	00000002 	udf	#2
    be58:	35600705 	cbnz	w5, cbf38 <__stack_end+0xb51a8>
    be5c:	00000002 	udf	#2
    be60:	35800705 	cbnz	w5, fffffffffff0bf40 <DEVICE+0xff9ffffffff0bb37>
    be64:	00000002 	udf	#2
    be68:	35a00705 	cbnz	w5, fffffffffff4bf48 <DEVICE+0xff9ffffffff4bb3f>
    be6c:	00000002 	udf	#2
    be70:	35c00705 	cbnz	w5, fffffffffff8bf50 <DEVICE+0xff9ffffffff8bb47>
    be74:	00000002 	udf	#2
    be78:	35e00705 	cbnz	w5, fffffffffffcbf58 <DEVICE+0xff9ffffffffcbb4f>
    be7c:	00000002 	udf	#2
    be80:	36000705 	tbz	w5, #0, bf60 <MMUTableL2.2+0x4e60>
    be84:	00000002 	udf	#2
    be88:	36200705 	tbz	w5, #4, bf68 <MMUTableL2.2+0x4e68>
    be8c:	00000002 	udf	#2
    be90:	36400705 	tbz	w5, #8, bf70 <MMUTableL2.2+0x4e70>
    be94:	00000002 	udf	#2
    be98:	36600705 	tbz	w5, #12, bf78 <MMUTableL2.2+0x4e78>
    be9c:	00000002 	udf	#2
    bea0:	36800705 	tbz	w5, #16, bf80 <MMUTableL2.2+0x4e80>
    bea4:	00000002 	udf	#2
    bea8:	36a00705 	tbz	w5, #20, bf88 <MMUTableL2.2+0x4e88>
    beac:	00000002 	udf	#2
    beb0:	36c00705 	tbz	w5, #24, bf90 <MMUTableL2.2+0x4e90>
    beb4:	00000002 	udf	#2
    beb8:	36e00705 	tbz	w5, #28, bf98 <MMUTableL2.2+0x4e98>
    bebc:	00000002 	udf	#2
    bec0:	37000705 	tbnz	w5, #0, bfa0 <MMUTableL2.2+0x4ea0>
    bec4:	00000002 	udf	#2
    bec8:	37200705 	tbnz	w5, #4, bfa8 <MMUTableL2.2+0x4ea8>
    becc:	00000002 	udf	#2
    bed0:	37400705 	tbnz	w5, #8, bfb0 <MMUTableL2.2+0x4eb0>
    bed4:	00000002 	udf	#2
    bed8:	37600705 	tbnz	w5, #12, bfb8 <MMUTableL2.2+0x4eb8>
    bedc:	00000002 	udf	#2
    bee0:	37800705 	tbnz	w5, #16, bfc0 <MMUTableL2.2+0x4ec0>
    bee4:	00000002 	udf	#2
    bee8:	37a00705 	tbnz	w5, #20, bfc8 <MMUTableL2.2+0x4ec8>
    beec:	00000002 	udf	#2
    bef0:	37c00705 	tbnz	w5, #24, bfd0 <MMUTableL2.2+0x4ed0>
    bef4:	00000002 	udf	#2
    bef8:	37e00705 	tbnz	w5, #28, bfd8 <MMUTableL2.2+0x4ed8>
    befc:	00000002 	udf	#2
    bf00:	38000705 	strb	w5, [x24], #0
    bf04:	00000002 	udf	#2
    bf08:	38200705 	.inst	0x38200705 ; undefined
    bf0c:	00000002 	udf	#2
    bf10:	38400705 	ldrb	w5, [x24], #0
    bf14:	00000002 	udf	#2
    bf18:	38600705 	.inst	0x38600705 ; undefined
    bf1c:	00000002 	udf	#2
    bf20:	38800705 	ldrsb	x5, [x24], #0
    bf24:	00000002 	udf	#2
    bf28:	38a00705 	.inst	0x38a00705 ; undefined
    bf2c:	00000002 	udf	#2
    bf30:	38c00705 	ldrsb	w5, [x24], #0
    bf34:	00000002 	udf	#2
    bf38:	38e00705 	.inst	0x38e00705 ; undefined
    bf3c:	00000002 	udf	#2
    bf40:	39000705 	strb	w5, [x24, #1]
    bf44:	00000002 	udf	#2
    bf48:	39200705 	strb	w5, [x24, #2049]
    bf4c:	00000002 	udf	#2
    bf50:	39400705 	ldrb	w5, [x24, #1]
    bf54:	00000002 	udf	#2
    bf58:	39600705 	ldrb	w5, [x24, #2049]
    bf5c:	00000002 	udf	#2
    bf60:	39800705 	ldrsb	x5, [x24, #1]
    bf64:	00000002 	udf	#2
    bf68:	39a00705 	ldrsb	x5, [x24, #2049]
    bf6c:	00000002 	udf	#2
    bf70:	39c00705 	ldrsb	w5, [x24, #1]
    bf74:	00000002 	udf	#2
    bf78:	39e00705 	ldrsb	w5, [x24, #2049]
    bf7c:	00000002 	udf	#2
    bf80:	3a000705 	.inst	0x3a000705 ; undefined
    bf84:	00000002 	udf	#2
    bf88:	3a200705 	.inst	0x3a200705 ; undefined
    bf8c:	00000002 	udf	#2
    bf90:	3a400705 	.inst	0x3a400705 ; undefined
    bf94:	00000002 	udf	#2
    bf98:	3a600705 	.inst	0x3a600705 ; undefined
    bf9c:	00000002 	udf	#2
    bfa0:	3a800705 	.inst	0x3a800705 ; undefined
    bfa4:	00000002 	udf	#2
    bfa8:	3aa00705 	.inst	0x3aa00705 ; undefined
    bfac:	00000002 	udf	#2
    bfb0:	3ac00705 	.inst	0x3ac00705 ; undefined
    bfb4:	00000002 	udf	#2
    bfb8:	3ae00705 	.inst	0x3ae00705 ; undefined
    bfbc:	00000002 	udf	#2
    bfc0:	3b000705 	.inst	0x3b000705 ; undefined
    bfc4:	00000002 	udf	#2
    bfc8:	3b200705 	.inst	0x3b200705 ; undefined
    bfcc:	00000002 	udf	#2
    bfd0:	3b400705 	.inst	0x3b400705 ; undefined
    bfd4:	00000002 	udf	#2
    bfd8:	3b600705 	.inst	0x3b600705 ; undefined
    bfdc:	00000002 	udf	#2
    bfe0:	3b800705 	.inst	0x3b800705 ; undefined
    bfe4:	00000002 	udf	#2
    bfe8:	3ba00705 	.inst	0x3ba00705 ; undefined
    bfec:	00000002 	udf	#2
    bff0:	3bc00705 	.inst	0x3bc00705 ; undefined
    bff4:	00000002 	udf	#2
    bff8:	3be00705 	.inst	0x3be00705 ; undefined
    bffc:	00000002 	udf	#2
    c000:	3c000705 	str	b5, [x24], #0
    c004:	00000002 	udf	#2
    c008:	3c200705 	.inst	0x3c200705 ; undefined
    c00c:	00000002 	udf	#2
    c010:	3c400705 	ldr	b5, [x24], #0
    c014:	00000002 	udf	#2
    c018:	3c600705 	.inst	0x3c600705 ; undefined
    c01c:	00000002 	udf	#2
    c020:	3c800705 	str	q5, [x24], #0
    c024:	00000002 	udf	#2
    c028:	3ca00705 	.inst	0x3ca00705 ; undefined
    c02c:	00000002 	udf	#2
    c030:	3cc00705 	ldr	q5, [x24], #0
    c034:	00000002 	udf	#2
    c038:	3ce00705 	.inst	0x3ce00705 ; undefined
    c03c:	00000002 	udf	#2
    c040:	3d000705 	str	b5, [x24, #1]
    c044:	00000002 	udf	#2
    c048:	3d200705 	str	b5, [x24, #2049]
    c04c:	00000002 	udf	#2
    c050:	3d400705 	ldr	b5, [x24, #1]
    c054:	00000002 	udf	#2
    c058:	3d600705 	ldr	b5, [x24, #2049]
    c05c:	00000002 	udf	#2
    c060:	3d800705 	str	q5, [x24, #16]
    c064:	00000002 	udf	#2
    c068:	3da00705 	str	q5, [x24, #32784]
    c06c:	00000002 	udf	#2
    c070:	3dc00705 	ldr	q5, [x24, #16]
    c074:	00000002 	udf	#2
    c078:	3de00705 	ldr	q5, [x24, #32784]
    c07c:	00000002 	udf	#2
    c080:	3e000705 	.inst	0x3e000705 ; undefined
    c084:	00000002 	udf	#2
    c088:	3e200705 	.inst	0x3e200705 ; undefined
    c08c:	00000002 	udf	#2
    c090:	3e400705 	.inst	0x3e400705 ; undefined
    c094:	00000002 	udf	#2
    c098:	3e600705 	.inst	0x3e600705 ; undefined
    c09c:	00000002 	udf	#2
    c0a0:	3e800705 	.inst	0x3e800705 ; undefined
    c0a4:	00000002 	udf	#2
    c0a8:	3ea00705 	.inst	0x3ea00705 ; undefined
    c0ac:	00000002 	udf	#2
    c0b0:	3ec00705 	.inst	0x3ec00705 ; undefined
    c0b4:	00000002 	udf	#2
    c0b8:	3ee00705 	.inst	0x3ee00705 ; undefined
    c0bc:	00000002 	udf	#2
    c0c0:	3f000705 	.inst	0x3f000705 ; undefined
    c0c4:	00000002 	udf	#2
    c0c8:	3f200705 	.inst	0x3f200705 ; undefined
    c0cc:	00000002 	udf	#2
    c0d0:	3f400705 	.inst	0x3f400705 ; undefined
    c0d4:	00000002 	udf	#2
    c0d8:	3f600705 	.inst	0x3f600705 ; undefined
    c0dc:	00000002 	udf	#2
    c0e0:	3f800705 	.inst	0x3f800705 ; undefined
    c0e4:	00000002 	udf	#2
    c0e8:	3fa00705 	.inst	0x3fa00705 ; undefined
    c0ec:	00000002 	udf	#2
    c0f0:	3fc00705 	.inst	0x3fc00705 ; undefined
    c0f4:	00000002 	udf	#2
    c0f8:	3fe00705 	.inst	0x3fe00705 ; undefined
    c0fc:	00000002 	udf	#2
    c100:	40000705 	.inst	0x40000705 ; undefined
    c104:	00000002 	udf	#2
    c108:	40200705 	.inst	0x40200705 ; undefined
    c10c:	00000002 	udf	#2
    c110:	40400705 	.inst	0x40400705 ; undefined
    c114:	00000002 	udf	#2
    c118:	40600705 	.inst	0x40600705 ; undefined
    c11c:	00000002 	udf	#2
    c120:	40800705 	.inst	0x40800705 ; undefined
    c124:	00000002 	udf	#2
    c128:	40a00705 	.inst	0x40a00705 ; undefined
    c12c:	00000002 	udf	#2
    c130:	40c00705 	.inst	0x40c00705 ; undefined
    c134:	00000002 	udf	#2
    c138:	40e00705 	.inst	0x40e00705 ; undefined
    c13c:	00000002 	udf	#2
    c140:	41000705 	.inst	0x41000705 ; undefined
    c144:	00000002 	udf	#2
    c148:	41200705 	.inst	0x41200705 ; undefined
    c14c:	00000002 	udf	#2
    c150:	41400705 	.inst	0x41400705 ; undefined
    c154:	00000002 	udf	#2
    c158:	41600705 	.inst	0x41600705 ; undefined
    c15c:	00000002 	udf	#2
    c160:	41800705 	.inst	0x41800705 ; undefined
    c164:	00000002 	udf	#2
    c168:	41a00705 	.inst	0x41a00705 ; undefined
    c16c:	00000002 	udf	#2
    c170:	41c00705 	.inst	0x41c00705 ; undefined
    c174:	00000002 	udf	#2
    c178:	41e00705 	.inst	0x41e00705 ; undefined
    c17c:	00000002 	udf	#2
    c180:	42000705 	.inst	0x42000705 ; undefined
    c184:	00000002 	udf	#2
    c188:	42200705 	.inst	0x42200705 ; undefined
    c18c:	00000002 	udf	#2
    c190:	42400705 	.inst	0x42400705 ; undefined
    c194:	00000002 	udf	#2
    c198:	42600705 	.inst	0x42600705 ; undefined
    c19c:	00000002 	udf	#2
    c1a0:	42800705 	.inst	0x42800705 ; undefined
    c1a4:	00000002 	udf	#2
    c1a8:	42a00705 	.inst	0x42a00705 ; undefined
    c1ac:	00000002 	udf	#2
    c1b0:	42c00705 	.inst	0x42c00705 ; undefined
    c1b4:	00000002 	udf	#2
    c1b8:	42e00705 	.inst	0x42e00705 ; undefined
    c1bc:	00000002 	udf	#2
    c1c0:	43000705 	.inst	0x43000705 ; undefined
    c1c4:	00000002 	udf	#2
    c1c8:	43200705 	.inst	0x43200705 ; undefined
    c1cc:	00000002 	udf	#2
    c1d0:	43400705 	.inst	0x43400705 ; undefined
    c1d4:	00000002 	udf	#2
    c1d8:	43600705 	.inst	0x43600705 ; undefined
    c1dc:	00000002 	udf	#2
    c1e0:	43800705 	.inst	0x43800705 ; undefined
    c1e4:	00000002 	udf	#2
    c1e8:	43a00705 	.inst	0x43a00705 ; undefined
    c1ec:	00000002 	udf	#2
    c1f0:	43c00705 	.inst	0x43c00705 ; undefined
    c1f4:	00000002 	udf	#2
    c1f8:	43e00705 	.inst	0x43e00705 ; undefined
    c1fc:	00000002 	udf	#2
    c200:	44000705 	.inst	0x44000705 ; undefined
    c204:	00000002 	udf	#2
    c208:	44200705 	.inst	0x44200705 ; undefined
    c20c:	00000002 	udf	#2
    c210:	44400705 	.inst	0x44400705 ; undefined
    c214:	00000002 	udf	#2
    c218:	44600705 	.inst	0x44600705 ; undefined
    c21c:	00000002 	udf	#2
    c220:	44800705 	udot	z5.s, z24.b, z0.b
    c224:	00000002 	udf	#2
    c228:	44a00705 	udot	z5.s, z24.b, z0.b[0]
    c22c:	00000002 	udf	#2
    c230:	44c00705 	udot	z5.d, z24.h, z0.h
    c234:	00000002 	udf	#2
    c238:	44e00705 	udot	z5.d, z24.h, z0.h[0]
    c23c:	00000002 	udf	#2
    c240:	45000705 	.inst	0x45000705 ; undefined
    c244:	00000002 	udf	#2
    c248:	45200705 	.inst	0x45200705 ; undefined
    c24c:	00000002 	udf	#2
    c250:	45400705 	saddlt	z5.h, z24.b, z0.b
    c254:	00000002 	udf	#2
    c258:	45600705 	sqshrunt	z5.s, z24.d, #32
    c25c:	00000002 	udf	#2
    c260:	45800705 	saddlt	z5.s, z24.h, z0.h
    c264:	00000002 	udf	#2
    c268:	45a00705 	.inst	0x45a00705 ; undefined
    c26c:	00000002 	udf	#2
    c270:	45c00705 	saddlt	z5.d, z24.s, z0.s
    c274:	00000002 	udf	#2
    c278:	45e00705 	.inst	0x45e00705 ; undefined
    c27c:	00000002 	udf	#2
    c280:	46000705 	.inst	0x46000705 ; undefined
    c284:	00000002 	udf	#2
    c288:	46200705 	.inst	0x46200705 ; undefined
    c28c:	00000002 	udf	#2
    c290:	46400705 	.inst	0x46400705 ; undefined
    c294:	00000002 	udf	#2
    c298:	46600705 	.inst	0x46600705 ; undefined
    c29c:	00000002 	udf	#2
    c2a0:	46800705 	.inst	0x46800705 ; undefined
    c2a4:	00000002 	udf	#2
    c2a8:	46a00705 	.inst	0x46a00705 ; undefined
    c2ac:	00000002 	udf	#2
    c2b0:	46c00705 	.inst	0x46c00705 ; undefined
    c2b4:	00000002 	udf	#2
    c2b8:	46e00705 	.inst	0x46e00705 ; undefined
    c2bc:	00000002 	udf	#2
    c2c0:	47000705 	.inst	0x47000705 ; undefined
    c2c4:	00000002 	udf	#2
    c2c8:	47200705 	.inst	0x47200705 ; undefined
    c2cc:	00000002 	udf	#2
    c2d0:	47400705 	.inst	0x47400705 ; undefined
    c2d4:	00000002 	udf	#2
    c2d8:	47600705 	.inst	0x47600705 ; undefined
    c2dc:	00000002 	udf	#2
    c2e0:	47800705 	.inst	0x47800705 ; undefined
    c2e4:	00000002 	udf	#2
    c2e8:	47a00705 	.inst	0x47a00705 ; undefined
    c2ec:	00000002 	udf	#2
    c2f0:	47c00705 	.inst	0x47c00705 ; undefined
    c2f4:	00000002 	udf	#2
    c2f8:	47e00705 	.inst	0x47e00705 ; undefined
    c2fc:	00000002 	udf	#2
    c300:	48000705 	stxrh	w0, w5, [x24]
    c304:	00000002 	udf	#2
    c308:	48200705 	.inst	0x48200705 ; undefined
    c30c:	00000002 	udf	#2
    c310:	48400705 	ldxrh	w5, [x24]
    c314:	00000002 	udf	#2
    c318:	48600705 	.inst	0x48600705 ; undefined
    c31c:	00000002 	udf	#2
    c320:	48800705 	stllrh	w5, [x24]
    c324:	00000002 	udf	#2
    c328:	48a00705 	.inst	0x48a00705 ; undefined
    c32c:	00000002 	udf	#2
    c330:	48c00705 	ldlarh	w5, [x24]
    c334:	00000002 	udf	#2
    c338:	48e00705 	.inst	0x48e00705 ; undefined
    c33c:	00000002 	udf	#2
    c340:	49000705 	.inst	0x49000705 ; undefined
    c344:	00000002 	udf	#2
    c348:	49200705 	.inst	0x49200705 ; undefined
    c34c:	00000002 	udf	#2
    c350:	49400705 	.inst	0x49400705 ; undefined
    c354:	00000002 	udf	#2
    c358:	49600705 	.inst	0x49600705 ; undefined
    c35c:	00000002 	udf	#2
    c360:	49800705 	.inst	0x49800705 ; undefined
    c364:	00000002 	udf	#2
    c368:	49a00705 	.inst	0x49a00705 ; undefined
    c36c:	00000002 	udf	#2
    c370:	49c00705 	.inst	0x49c00705 ; undefined
    c374:	00000002 	udf	#2
    c378:	49e00705 	.inst	0x49e00705 ; undefined
    c37c:	00000002 	udf	#2
    c380:	4a000705 	eor	w5, w24, w0, lsl #1
    c384:	00000002 	udf	#2
    c388:	4a200705 	eon	w5, w24, w0, lsl #1
    c38c:	00000002 	udf	#2
    c390:	4a400705 	eor	w5, w24, w0, lsr #1
    c394:	00000002 	udf	#2
    c398:	4a600705 	eon	w5, w24, w0, lsr #1
    c39c:	00000002 	udf	#2
    c3a0:	4a800705 	eor	w5, w24, w0, asr #1
    c3a4:	00000002 	udf	#2
    c3a8:	4aa00705 	eon	w5, w24, w0, asr #1
    c3ac:	00000002 	udf	#2
    c3b0:	4ac00705 	eor	w5, w24, w0, ror #1
    c3b4:	00000002 	udf	#2
    c3b8:	4ae00705 	eon	w5, w24, w0, ror #1
    c3bc:	00000002 	udf	#2
    c3c0:	4b000705 	sub	w5, w24, w0, lsl #1
    c3c4:	00000002 	udf	#2
    c3c8:	4b200705 	sub	w5, w24, w0, uxtb #1
    c3cc:	00000002 	udf	#2
    c3d0:	4b400705 	sub	w5, w24, w0, lsr #1
    c3d4:	00000002 	udf	#2
    c3d8:	4b600705 	.inst	0x4b600705 ; undefined
    c3dc:	00000002 	udf	#2
    c3e0:	4b800705 	sub	w5, w24, w0, asr #1
    c3e4:	00000002 	udf	#2
    c3e8:	4ba00705 	.inst	0x4ba00705 ; undefined
    c3ec:	00000002 	udf	#2
    c3f0:	4bc00705 	.inst	0x4bc00705 ; undefined
    c3f4:	00000002 	udf	#2
    c3f8:	4be00705 	.inst	0x4be00705 ; undefined
    c3fc:	00000002 	udf	#2
    c400:	4c000705 	st4	{v5.8h-v8.8h}, [x24]
    c404:	00000002 	udf	#2
    c408:	4c200705 	.inst	0x4c200705 ; undefined
    c40c:	00000002 	udf	#2
    c410:	4c400705 	ld4	{v5.8h-v8.8h}, [x24]
    c414:	00000002 	udf	#2
    c418:	4c600705 	.inst	0x4c600705 ; undefined
    c41c:	00000002 	udf	#2
    c420:	4c800705 	st4	{v5.8h-v8.8h}, [x24], x0
    c424:	00000002 	udf	#2
    c428:	4ca00705 	.inst	0x4ca00705 ; undefined
    c42c:	00000002 	udf	#2
    c430:	4cc00705 	ld4	{v5.8h-v8.8h}, [x24], x0
    c434:	00000002 	udf	#2
    c438:	4ce00705 	.inst	0x4ce00705 ; undefined
    c43c:	00000002 	udf	#2
    c440:	4d000705 	st1	{v5.b}[9], [x24]
    c444:	00000002 	udf	#2
    c448:	4d200705 	st2	{v5.b-v6.b}[9], [x24]
    c44c:	00000002 	udf	#2
    c450:	4d400705 	ld1	{v5.b}[9], [x24]
    c454:	00000002 	udf	#2
    c458:	4d600705 	ld2	{v5.b-v6.b}[9], [x24]
    c45c:	00000002 	udf	#2
    c460:	4d800705 	st1	{v5.b}[9], [x24], x0
    c464:	00000002 	udf	#2
    c468:	4da00705 	st2	{v5.b-v6.b}[9], [x24], x0
    c46c:	00000002 	udf	#2
    c470:	4dc00705 	ld1	{v5.b}[9], [x24], x0
    c474:	00000002 	udf	#2
    c478:	4de00705 	ld2	{v5.b-v6.b}[9], [x24], x0
    c47c:	00000002 	udf	#2
    c480:	4e000705 	.inst	0x4e000705 ; undefined
    c484:	00000002 	udf	#2
    c488:	4e200705 	shadd	v5.16b, v24.16b, v0.16b
    c48c:	00000002 	udf	#2
    c490:	4e400705 	fmaxnm	v5.8h, v24.8h, v0.8h
    c494:	00000002 	udf	#2
    c498:	4e600705 	shadd	v5.8h, v24.8h, v0.8h
    c49c:	00000002 	udf	#2
    c4a0:	4e800705 	.inst	0x4e800705 ; undefined
    c4a4:	00000002 	udf	#2
    c4a8:	4ea00705 	shadd	v5.4s, v24.4s, v0.4s
    c4ac:	00000002 	udf	#2
    c4b0:	4ec00705 	fminnm	v5.8h, v24.8h, v0.8h
    c4b4:	00000002 	udf	#2
    c4b8:	4ee00705 	.inst	0x4ee00705 ; undefined
    c4bc:	00000002 	udf	#2
    c4c0:	4f000705 	movi	v5.4s, #0x18
    c4c4:	00000002 	udf	#2
    c4c8:	4f200705 	sshr	v5.4s, v24.4s, #32
    c4cc:	00000002 	udf	#2
    c4d0:	4f400705 	sshr	v5.2d, v24.2d, #64
    c4d4:	00000002 	udf	#2
    c4d8:	4f600705 	sshr	v5.2d, v24.2d, #32
    c4dc:	00000002 	udf	#2
    c4e0:	4f800705 	.inst	0x4f800705 ; undefined
    c4e4:	00000002 	udf	#2
    c4e8:	4fa00705 	.inst	0x4fa00705 ; undefined
    c4ec:	00000002 	udf	#2
    c4f0:	4fc00705 	.inst	0x4fc00705 ; undefined
    c4f4:	00000002 	udf	#2
    c4f8:	4fe00705 	.inst	0x4fe00705 ; undefined
    c4fc:	00000002 	udf	#2
    c500:	50000705 	adr	x5, c5e2 <MMUTableL2.2+0x54e2>
    c504:	00000002 	udf	#2
    c508:	50200705 	adr	x5, 4c5ea <__stack_end+0x3585a>
    c50c:	00000002 	udf	#2
    c510:	50400705 	adr	x5, 8c5f2 <__stack_end+0x75862>
    c514:	00000002 	udf	#2
    c518:	50600705 	adr	x5, cc5fa <__stack_end+0xb586a>
    c51c:	00000002 	udf	#2
    c520:	50800705 	adr	x5, fffffffffff0c602 <DEVICE+0xff9ffffffff0c1f9>
    c524:	00000002 	udf	#2
    c528:	50a00705 	adr	x5, fffffffffff4c60a <DEVICE+0xff9ffffffff4c201>
    c52c:	00000002 	udf	#2
    c530:	50c00705 	adr	x5, fffffffffff8c612 <DEVICE+0xff9ffffffff8c209>
    c534:	00000002 	udf	#2
    c538:	50e00705 	adr	x5, fffffffffffcc61a <DEVICE+0xff9ffffffffcc211>
    c53c:	00000002 	udf	#2
    c540:	51000705 	sub	w5, w24, #0x1
